00001bc8 d BSET
00001e60 r C$2$2166
00000258 r C$22$8306
00005518 r C$3$2147
00000004 C CASDEBUG
00004070 r CA_ECHO_TIMEOUT
000cc0ec t ClockTimeGetCurrent
0000520c b ClockTimePvt
000cc1f0 t ClockTimeSync
000cbf60 T ClockTime_Init
000cbfa4 t ClockTime_InitOnce
000cbcdc T ClockTime_Report
000cbef0 T ClockTime_Shutdown
00001c74 T D212Config
00001728 t D212Report
00003ae8 R DBR_XXXXToEpicsType
00004da4 R EPICS_AR_PORT
00004dac R EPICS_CAS_AUTO_BEACON_ADDR_LIST
00004db4 R EPICS_CAS_BEACON_ADDR_LIST
00004dbc R EPICS_CAS_BEACON_PERIOD
00004dc4 R EPICS_CAS_BEACON_PORT
00004dcc R EPICS_CAS_IGNORE_ADDR_LIST
00004dd4 R EPICS_CAS_INTF_ADDR_LIST
00004ddc R EPICS_CAS_SERVER_PORT
00004de4 R EPICS_CA_ADDR_LIST
00004dec R EPICS_CA_AUTO_ADDR_LIST
00004df4 R EPICS_CA_BEACON_PERIOD
00004dfc R EPICS_CA_CONN_TMO
00004e04 R EPICS_CA_MAX_ARRAY_BYTES
00004e0c R EPICS_CA_MAX_SEARCH_PERIOD
00004e14 R EPICS_CA_NAME_SERVERS
00004e1c R EPICS_CA_REPEATER_PORT
00004e24 R EPICS_CA_SERVER_PORT
00004e2c R EPICS_CMD_PROTO_PORT
00004e34 R EPICS_IOC_LOG_FILE_COMMAND
00004e3c R EPICS_IOC_LOG_FILE_LIMIT
00004e44 R EPICS_IOC_LOG_FILE_NAME
00004e4c R EPICS_IOC_LOG_INET
00004e54 R EPICS_IOC_LOG_PORT
00004e5c R EPICS_TIMEZONE
00004e64 R EPICS_TS_NTP_INET
00001b04 r EVENT_PEND_NAME
0003ae64 t FIND_CONT_NODE
00001a00 d FirstFlag$4490
00000f64 d FirstFlag$4629
00004e6c R IOCSH_HISTSIZE
00004e74 R IOCSH_PS1
00000004 C IOC_cast_sock
00000004 C IOC_sock
00000288 d Ifldnames
00023adc t MPTOPCIU
000cb6ec t NTPTimeGetCurrent
000051c8 b NTPTimePvt
000cb86c t NTPTimeSync
000cb4a0 T NTPTime_Init
000cb4e4 t NTPTime_InitOnce
000cb1d4 T NTPTime_Report
000cb430 T NTPTime_Shutdown
000002dc d Ofldnames
0004fff4 t ProcessCallback
000055cc r ReportArg0
000055f0 r ReportArg0
000055c8 r ReportArgs
000055ec r ReportArgs
000cb400 t ReportCallFunc
000cbec0 t ReportCallFunc
000055b0 r ReportFuncDef
000055d4 r ReportFuncDef
000cb470 t ShutdownCallFunc
000cbf30 t ShutdownCallFunc
000055bc r ShutdownFuncDef
000055e0 r ShutdownFuncDef
000aa340 T SingletonMutexOnce
000b36d0 t Strdup
000016b0 T SweepOption_get
000560c4 T _GLOBAL__D__ZN9dbService13contextCreateER10epicsMutexS1_R16cacContextNotify
000807b8 T _GLOBAL__D_localHostNameCache
00099e08 T _GLOBAL__D_noopIIU
000c94fc T _GLOBAL__D_timerQueueMgrEPICS
000a2410 T _GLOBAL__I__ZN14repeaterClientC2ERK11osiSockAddr
000ba480 T _GLOBAL__I__ZN18epicsThreadRunableD2Ev
000560fc T _GLOBAL__I__ZN9dbService13contextCreateER10epicsMutexS1_R16cacContextNotify
000bfe04 T _GLOBAL__I_epicsNAN
000b0da4 T _GLOBAL__I_iocshPpdbbase
00080780 T _GLOBAL__I_localHostNameCache
00099e40 T _GLOBAL__I_noopIIU
000c3e84 T _GLOBAL__I_osdNTPGet
00000614 T _GLOBAL__I_rcsRfIoc_registerRecordDeviceDriver
000c9534 T _GLOBAL__I_timerQueueMgrEPICS
         U _Unwind_Resume
000a24c0 t _Z10makeSockettbPi
000a335c T _Z11ca_repeaterv
000a2710 t _Z13verifyClientsR10tsFreeListI14repeaterClientLj32E10epicsMutexE
00070350 T _Z18fetchClientContextPP17ca_client_context
000a2f90 t _Z19register_new_clientR11osiSockAddrR10tsFreeListI14repeaterClientLj32E10epicsMutexE
000a7b70 T _Z20epicsRingPointerSizePv
00076fb4 T _Z23caInstallDefaultServiceR10cacService
0008b2bc T _Z29caRepeaterRegistrationMessageijj
0008b078 T _Z29caStartRepeaterIfNotInstalledj
00000000 t _Z41__static_initialization_and_destruction_0ii
00056030 t _Z41__static_initialization_and_destruction_0ii
00080750 t _Z41__static_initialization_and_destruction_0ii
00099d80 t _Z41__static_initialization_and_destruction_0ii
000a23dc t _Z41__static_initialization_and_destruction_0ii
000b0cec t _Z41__static_initialization_and_destruction_0ii
000ba424 t _Z41__static_initialization_and_destruction_0ii
000bfdc4 t _Z41__static_initialization_and_destruction_0ii
000c3d84 t _Z41__static_initialization_and_destruction_0ii
000c94cc t _Z41__static_initialization_and_destruction_0ii
000a2a90 t _Z6fanOutRK11osiSockAddrPKvjR10tsFreeListI14repeaterClientLj32E10epicsMutexE
00004778 b _ZGVZ13verifyClientsR10tsFreeListI14repeaterClientLj32E10epicsMutexEE10theClients
00004790 b _ZGVZ6fanOutRK11osiSockAddrPKvjR10tsFreeListI14repeaterClientLj32E10epicsMutexEE10theClients
000048b0 b _ZGVZN9epicsTimeC1ERK14time_t_wrapperE3lti
00004730 b _ZGVZNK10cacChannel12accessRightsER10epicsGuardI10epicsMutexEE2ar
000048a0 b _ZGVZNK9epicsTimecv14time_t_wrapperEvE3lti
00000000 W _ZN10SearchDest8CallbackD0Ev
00000000 W _ZN10SearchDest8CallbackD1Ev
00000000 W _ZN10SearchDestD0Ev
00000000 W _ZN10SearchDestD1Ev
00003aa4 R _ZN10cacChannel11priorityMaxE
00003aa8 R _ZN10cacChannel11priorityMinE
00003ab8 R _ZN10cacChannel11priorityOPIE
00003ab4 R _ZN10cacChannel15priorityArchiveE
00003aac R _ZN10cacChannel15priorityDefaultE
00003ab0 R _ZN10cacChannel15priorityLinksDBE
0006f89c T _ZN10cacChannelD0Ev
0006f8d4 T _ZN10cacChannelD1Ev
0006f8e4 T _ZN10cacChannelD2Ev
0006f844 T _ZN10cacContextD0Ev
0006f87c T _ZN10cacContextD1Ev
0006f88c T _ZN10cacContextD2Ev
00000000 W _ZN10cacRecycleD0Ev
00000000 W _ZN10cacRecycleD1Ev
0006f7ec T _ZN10cacServiceD0Ev
0006f824 T _ZN10cacServiceD1Ev
0006f834 T _ZN10cacServiceD2Ev
0009f244 T _ZN10comQueRecv11removeBytesEj
0009ecd0 T _ZN10comQueRecv12copyOutBytesEPcj
0009ee18 T _ZN10comQueRecv15popOldMsgHeaderER15caHdrLargeArray
0009e72c T _ZN10comQueRecv19removeAndDestroyBufER6comBuf
0009eb34 T _ZN10comQueRecv20multiBufferPopUInt16Ev
0009e954 T _ZN10comQueRecv20multiBufferPopUInt32Ev
0009f0c0 T _ZN10comQueRecv22pushLastComBufReceivedER6comBuf
0009e5ec T _ZN10comQueRecv5clearEv
0009e800 T _ZN10comQueRecv8popUInt8Ev
0009e8e8 T _ZN10comQueRecv9popStringEPA40_c
0009ebd4 T _ZN10comQueRecv9popUInt16Ev
0009ea38 T _ZN10comQueRecv9popUInt32Ev
0009f228 T _ZN10comQueRecvC1ER19comBufMemoryManager
0009e7e4 T _ZN10comQueRecvC2ER19comBufMemoryManager
0009e6d4 T _ZN10comQueRecvD1Ev
0009e700 T _ZN10comQueRecvD2Ev
000a091c T _ZN10comQueSend13copy_dbr_charEPKv
0009f9d0 T _ZN10comQueSend13copy_dbr_charEPKvj
000a07e0 T _ZN10comQueSend13copy_dbr_longEPKv
000a009c T _ZN10comQueSend13copy_dbr_longEPKvj
00004080 R _ZN10comQueSend13dbrCopyScalarE
000041b8 R _ZN10comQueSend13dbrCopyVectorE
000a01d8 T _ZN10comQueSend14copy_dbr_floatEPKv
0009fb50 T _ZN10comQueSend14copy_dbr_floatEPKvj
000a0a14 T _ZN10comQueSend14copy_dbr_shortEPKv
0009fc8c T _ZN10comQueSend14copy_dbr_shortEPKvj
0009fdc8 T _ZN10comQueSend15copy_dbr_doubleEPKv
0009ff60 T _ZN10comQueSend15copy_dbr_doubleEPKvj
0009f844 T _ZN10comQueSend15copy_dbr_stringEPKv
000a1000 T _ZN10comQueSend15copy_dbr_stringEPKvj
0009f3d0 T _ZN10comQueSend16copy_dbr_invalidEPKv
0009f394 T _ZN10comQueSend16copy_dbr_invalidEPKvj
0009f6e8 T _ZN10comQueSend18clearUncommitedMsgEv
000a0310 T _ZN10comQueSend19insertRequestHeaderEtjtjjjb
0009f40c T _ZN10comQueSend19popNextComBufToSendEv
000a0b20 T _ZN10comQueSend24insertRequestWithPayLoadEtjmjjPKvb
0009f578 T _ZN10comQueSend5clearEv
0009f7d0 T _ZN10comQueSend9commitMsgEv
0009f81c T _ZN10comQueSendC1ER15wireSendAdapterR19comBufMemoryManager
0009f36c T _ZN10comQueSendC2ER15wireSendAdapterR19comBufMemoryManager
0009f690 T _ZN10comQueSendD1Ev
0009f6bc T _ZN10comQueSendD2Ev
00000000 W _ZN10epicsEvent16invalidSemaphoreD0Ev
00000000 W _ZN10epicsEvent16invalidSemaphoreD1Ev
000bcc08 T _ZN10epicsEvent4waitEd
000bcdb8 T _ZN10epicsEvent4waitEv
000bcca0 T _ZN10epicsEvent6signalEv
000bce34 T _ZN10epicsEvent7tryWaitEv
000bcecc T _ZN10epicsEventC1E22epicsEventInitialState
000bcd30 T _ZN10epicsEventC2E22epicsEventInitialState
000bccd0 T _ZN10epicsEventD1Ev
000bcd00 T _ZN10epicsEventD2Ev
00000000 W _ZN10epicsMutex12invalidMutexD0Ev
00000000 W _ZN10epicsMutex12invalidMutexD1Ev
00000000 W _ZN10epicsMutex17mutexCreateFailedD0Ev
00000000 W _ZN10epicsMutex17mutexCreateFailedD1Ev
000bbef8 T _ZN10epicsMutex4lockEv
000bc068 T _ZN10epicsMutex6unlockEv
000bbfa0 T _ZN10epicsMutex7tryLockEv
000bc6f8 T _ZN10epicsMutexC1Ev
000bc8c8 T _ZN10epicsMutexC2Ev
000bc488 T _ZN10epicsMutexD1Ev
000bc510 T _ZN10epicsMutexD2Ev
000c5f10 T _ZN10epicsTimerD0Ev
000c5f48 T _ZN10epicsTimerD1Ev
000c5f58 T _ZN10epicsTimerD2Ev
000cc524 T _ZN10timerQueue11createTimerEv
000cc5c4 T _ZN10timerQueue14printExceptMsgEPKcRKSt9type_info
000cc464 T _ZN10timerQueue15createTimerForCEPFvPvES0_
000055f8 R _ZN10timerQueue18exceptMsgMinPeriodE
000cce30 T _ZN10timerQueue7processERK9epicsTime
000cd5b8 T _ZN10timerQueueC1ER21epicsTimerQueueNotify
000cd3e0 T _ZN10timerQueueC2ER21epicsTimerQueueNotify
000cc950 T _ZN10timerQueueD0Ev
000ccb38 T _ZN10timerQueueD1Ev
000cc77c T _ZN10timerQueueD2Ev
00000000 W _ZN10tsFreeListI11dbChannelIOLj256E14epicsMutexNOOPE20allocateFromNewChunkEv
00000000 W _ZN10tsFreeListI11dbChannelIOLj256E14epicsMutexNOOPE7releaseEPv
00000000 W _ZN10tsFreeListI11dbChannelIOLj256E14epicsMutexNOOPE8allocateEj
00000000 W _ZN10tsFreeListI11dbChannelIOLj256E14epicsMutexNOOPED1Ev
00000000 W _ZN10tsFreeListI11getCallbackLj1024E14epicsMutexNOOPE20allocateFromNewChunkEv
00000000 W _ZN10tsFreeListI11getCallbackLj1024E14epicsMutexNOOPE7releaseEPv
00000000 W _ZN10tsFreeListI11getCallbackLj1024E14epicsMutexNOOPE8allocateEj
00000000 W _ZN10tsFreeListI11getCallbackLj1024E14epicsMutexNOOPED1Ev
00000000 W _ZN10tsFreeListI11putCallbackLj1024E14epicsMutexNOOPE20allocateFromNewChunkEv
00000000 W _ZN10tsFreeListI11putCallbackLj1024E14epicsMutexNOOPE7releaseEPv
00000000 W _ZN10tsFreeListI11putCallbackLj1024E14epicsMutexNOOPE8allocateEj
00000000 W _ZN10tsFreeListI11putCallbackLj1024E14epicsMutexNOOPED1Ev
00000000 W _ZN10tsFreeListI14epicsTimerForCLj32E10epicsMutexE20allocateFromNewChunkEv
00000000 W _ZN10tsFreeListI14epicsTimerForCLj32E10epicsMutexE7releaseEPv
00000000 W _ZN10tsFreeListI14epicsTimerForCLj32E10epicsMutexE7releaseEPvj
00000000 W _ZN10tsFreeListI14epicsTimerForCLj32E10epicsMutexE8allocateEj
00000000 W _ZN10tsFreeListI14epicsTimerForCLj32E10epicsMutexEC1Ev
00000000 W _ZN10tsFreeListI14epicsTimerForCLj32E10epicsMutexEC2Ev
00000000 W _ZN10tsFreeListI14epicsTimerForCLj32E10epicsMutexED1Ev
00000000 W _ZN10tsFreeListI14epicsTimerForCLj32E10epicsMutexED2Ev
00000000 W _ZN10tsFreeListI14repeaterClientLj32E10epicsMutexE20allocateFromNewChunkEv
00000000 W _ZN10tsFreeListI14repeaterClientLj32E10epicsMutexE7releaseEPv
00000000 W _ZN10tsFreeListI14repeaterClientLj32E10epicsMutexE8allocateEj
00000000 W _ZN10tsFreeListI14repeaterClientLj32E10epicsMutexED1Ev
00000000 W _ZN10tsFreeListI15netReadNotifyIOLj1024E14epicsMutexNOOPE20allocateFromNewChunkEv
00000000 W _ZN10tsFreeListI15netReadNotifyIOLj1024E14epicsMutexNOOPE7releaseEPv
00000000 W _ZN10tsFreeListI15netReadNotifyIOLj1024E14epicsMutexNOOPE8allocateEj
00000000 W _ZN10tsFreeListI15netReadNotifyIOLj1024E14epicsMutexNOOPED1Ev
00000000 W _ZN10tsFreeListI15netSubscriptionLj1024E14epicsMutexNOOPE20allocateFromNewChunkEv
00000000 W _ZN10tsFreeListI15netSubscriptionLj1024E14epicsMutexNOOPE7releaseEPv
00000000 W _ZN10tsFreeListI15netSubscriptionLj1024E14epicsMutexNOOPE8allocateEj
00000000 W _ZN10tsFreeListI15netSubscriptionLj1024E14epicsMutexNOOPED1Ev
00000000 W _ZN10tsFreeListI15oldSubscriptionLj1024E14epicsMutexNOOPE20allocateFromNewChunkEv
00000000 W _ZN10tsFreeListI15oldSubscriptionLj1024E14epicsMutexNOOPE7releaseEPv
00000000 W _ZN10tsFreeListI15oldSubscriptionLj1024E14epicsMutexNOOPE8allocateEj
00000000 W _ZN10tsFreeListI15oldSubscriptionLj1024E14epicsMutexNOOPED1Ev
00000000 W _ZN10tsFreeListI16dbSubscriptionIOLj256E14epicsMutexNOOPE20allocateFromNewChunkEv
00000000 W _ZN10tsFreeListI16dbSubscriptionIOLj256E14epicsMutexNOOPE7releaseEPv
00000000 W _ZN10tsFreeListI16dbSubscriptionIOLj256E14epicsMutexNOOPE8allocateEj
00000000 W _ZN10tsFreeListI16dbSubscriptionIOLj256E14epicsMutexNOOPED1Ev
00000000 W _ZN10tsFreeListI16netWriteNotifyIOLj1024E14epicsMutexNOOPE20allocateFromNewChunkEv
00000000 W _ZN10tsFreeListI16netWriteNotifyIOLj1024E14epicsMutexNOOPE7releaseEPv
00000000 W _ZN10tsFreeListI16netWriteNotifyIOLj1024E14epicsMutexNOOPE8allocateEj
00000000 W _ZN10tsFreeListI16netWriteNotifyIOLj1024E14epicsMutexNOOPED1Ev
00000000 W _ZN10tsFreeListI16oldChannelNotifyLj1024E14epicsMutexNOOPE20allocateFromNewChunkEv
00000000 W _ZN10tsFreeListI16oldChannelNotifyLj1024E14epicsMutexNOOPE7releaseEPv
00000000 W _ZN10tsFreeListI16oldChannelNotifyLj1024E14epicsMutexNOOPE8allocateEj
00000000 W _ZN10tsFreeListI16oldChannelNotifyLj1024E14epicsMutexNOOPED1Ev
00000000 W _ZN10tsFreeListI18dbPutNotifyBlockerLj64E14epicsMutexNOOPE20allocateFromNewChunkEv
00000000 W _ZN10tsFreeListI18dbPutNotifyBlockerLj64E14epicsMutexNOOPE7releaseEPv
00000000 W _ZN10tsFreeListI18dbPutNotifyBlockerLj64E14epicsMutexNOOPE8allocateEj
00000000 W _ZN10tsFreeListI18dbPutNotifyBlockerLj64E14epicsMutexNOOPED1Ev
00000000 W _ZN10tsFreeListI19syncGroupReadNotifyLj128E14epicsMutexNOOPE20allocateFromNewChunkEv
00000000 W _ZN10tsFreeListI19syncGroupReadNotifyLj128E14epicsMutexNOOPE7releaseEPv
00000000 W _ZN10tsFreeListI19syncGroupReadNotifyLj128E14epicsMutexNOOPE8allocateEj
00000000 W _ZN10tsFreeListI19syncGroupReadNotifyLj128E14epicsMutexNOOPED1Ev
00000000 W _ZN10tsFreeListI20syncGroupWriteNotifyLj128E14epicsMutexNOOPE20allocateFromNewChunkEv
00000000 W _ZN10tsFreeListI20syncGroupWriteNotifyLj128E14epicsMutexNOOPE7releaseEPv
00000000 W _ZN10tsFreeListI20syncGroupWriteNotifyLj128E14epicsMutexNOOPE8allocateEj
00000000 W _ZN10tsFreeListI20syncGroupWriteNotifyLj128E14epicsMutexNOOPED1Ev
00000000 W _ZN10tsFreeListI23msgForMultiplyDefinedPVLj16E10epicsMutexE20allocateFromNewChunkEv
00000000 W _ZN10tsFreeListI23msgForMultiplyDefinedPVLj16E10epicsMutexE7releaseEPv
00000000 W _ZN10tsFreeListI23msgForMultiplyDefinedPVLj16E10epicsMutexE7releaseEPvj
00000000 W _ZN10tsFreeListI23msgForMultiplyDefinedPVLj16E10epicsMutexE8allocateEj
00000000 W _ZN10tsFreeListI23msgForMultiplyDefinedPVLj16E10epicsMutexED1Ev
00000000 W _ZN10tsFreeListI31ipAddrToAsciiTransactionPrivateLj128E10epicsMutexE20allocateFromNewChunkEv
00000000 W _ZN10tsFreeListI31ipAddrToAsciiTransactionPrivateLj128E10epicsMutexE7releaseEPv
00000000 W _ZN10tsFreeListI31ipAddrToAsciiTransactionPrivateLj128E10epicsMutexE7releaseEPvj
00000000 W _ZN10tsFreeListI31ipAddrToAsciiTransactionPrivateLj128E10epicsMutexE8allocateEj
00000000 W _ZN10tsFreeListI31ipAddrToAsciiTransactionPrivateLj128E10epicsMutexEC1Ev
00000000 W _ZN10tsFreeListI31ipAddrToAsciiTransactionPrivateLj128E10epicsMutexEC2Ev
00000000 W _ZN10tsFreeListI31ipAddrToAsciiTransactionPrivateLj128E10epicsMutexED1Ev
00000000 W _ZN10tsFreeListI31ipAddrToAsciiTransactionPrivateLj128E10epicsMutexED2Ev
00000000 W _ZN10tsFreeListI3bheLj256E10epicsMutexE20allocateFromNewChunkEv
00000000 W _ZN10tsFreeListI3bheLj256E10epicsMutexE7releaseEPv
00000000 W _ZN10tsFreeListI3bheLj256E10epicsMutexE8allocateEj
00000000 W _ZN10tsFreeListI3bheLj256E10epicsMutexED1Ev
00000000 W _ZN10tsFreeListI4CASGLj128E14epicsMutexNOOPED1Ev
00000000 W _ZN10tsFreeListI4nciuLj1024E14epicsMutexNOOPE20allocateFromNewChunkEv
00000000 W _ZN10tsFreeListI4nciuLj1024E14epicsMutexNOOPE7releaseEPv
00000000 W _ZN10tsFreeListI4nciuLj1024E14epicsMutexNOOPE7releaseEPvj
00000000 W _ZN10tsFreeListI4nciuLj1024E14epicsMutexNOOPE8allocateEj
00000000 W _ZN10tsFreeListI4nciuLj1024E14epicsMutexNOOPED1Ev
00000000 W _ZN10tsFreeListI5timerLj32E10epicsMutexE20allocateFromNewChunkEv
00000000 W _ZN10tsFreeListI5timerLj32E10epicsMutexE7releaseEPv
00000000 W _ZN10tsFreeListI5timerLj32E10epicsMutexE7releaseEPvj
00000000 W _ZN10tsFreeListI5timerLj32E10epicsMutexE8allocateEj
00000000 W _ZN10tsFreeListI5timerLj32E10epicsMutexEC1Ev
00000000 W _ZN10tsFreeListI5timerLj32E10epicsMutexEC2Ev
00000000 W _ZN10tsFreeListI5timerLj32E10epicsMutexED1Ev
00000000 W _ZN10tsFreeListI5timerLj32E10epicsMutexED2Ev
00000000 W _ZN10tsFreeListI6comBufLj32E10epicsMutexE20allocateFromNewChunkEv
00000000 W _ZN10tsFreeListI6comBufLj32E10epicsMutexE7releaseEPv
00000000 W _ZN10tsFreeListI6comBufLj32E10epicsMutexE8allocateEj
00000000 W _ZN10tsFreeListI6comBufLj32E10epicsMutexED1Ev
00000000 W _ZN10tsFreeListI6tcpiiuLj32E14epicsMutexNOOPE20allocateFromNewChunkEv
00000000 W _ZN10tsFreeListI6tcpiiuLj32E14epicsMutexNOOPE7releaseEPv
00000000 W _ZN10tsFreeListI6tcpiiuLj32E14epicsMutexNOOPE8allocateEj
00000000 W _ZN10tsFreeListI6tcpiiuLj32E14epicsMutexNOOPED1Ev
00000000 W _ZN10tsFreeListI7getCopyLj1024E14epicsMutexNOOPE20allocateFromNewChunkEv
00000000 W _ZN10tsFreeListI7getCopyLj1024E14epicsMutexNOOPE7releaseEPv
00000000 W _ZN10tsFreeListI7getCopyLj1024E14epicsMutexNOOPE8allocateEj
00000000 W _ZN10tsFreeListI7getCopyLj1024E14epicsMutexNOOPED1Ev
0007ce24 T _ZN11casgRecycleD0Ev
0007ce5c T _ZN11casgRecycleD1Ev
0007ce6c T _ZN11casgRecycleD2Ev
00089acc T _ZN11channelNode18setReqPendingStateER10epicsGuardI10epicsMutexEj
0008a1b0 T _ZN11channelNode19getSearchTimerIndexER10epicsGuardI10epicsMutexE
00089c3c T _ZN11channelNode19setRespPendingStateER10epicsGuardI10epicsMutexEj
00087f44 T _ZN11channelNode22getMaxSearchTimerCountEv
000581b0 T _ZN11dbChannelIO10destructorER10epicsGuardI10epicsMutexE
0005824c T _ZN11dbChannelIO15initiateConnectER10epicsGuardI10epicsMutexE
0005783c T _ZN11dbChannelIO26requestMessageBytesPendingER10epicsGuardI10epicsMutexE
00058028 T _ZN11dbChannelIO4readER10epicsGuardI10epicsMutexEjmR13cacReadNotifyPj
00057838 T _ZN11dbChannelIO5flushER10epicsGuardI10epicsMutexE
00058ba4 T _ZN11dbChannelIO5writeER10epicsGuardI10epicsMutexEjmPKv
00057958 T _ZN11dbChannelIO5writeER10epicsGuardI10epicsMutexEjmPKvR14cacWriteNotifyPj
00058128 T _ZN11dbChannelIO7destroyER10epicsGuardI10epicsMutexE
00058614 T _ZN11dbChannelIO8ioCancelER10epicsGuardI10epicsMutexERKj
000586ac T _ZN11dbChannelIO9subscribeER10epicsGuardI10epicsMutexEjmjR14cacStateNotifyPj
00057da8 T _ZN11dbChannelIOC1ER10epicsMutexR16cacChannelNotifyRK6dbAddrR9dbContext
00057b3c T _ZN11dbChannelIOC2ER10epicsMutexR16cacChannelNotifyRK6dbAddrR9dbContext
00057f48 T _ZN11dbChannelIOD0Ev
00057a70 T _ZN11dbChannelIOD1Ev
00057cdc T _ZN11dbChannelIOD2Ev
0005787c T _ZN11dbChannelIOdlEPv
00057844 T _ZN11dbChannelIOdlEPvR10tsFreeListIS_Lj256E14epicsMutexNOOPE
00058788 T _ZN11dbChannelIOnwEj
000578c0 T _ZN11dbChannelIOnwEjR10tsFreeListIS_Lj256E14epicsMutexNOOPE
000ba9d0 T _ZN11epicsThread11getNameSelfEv
000ba884 T _ZN11epicsThread11isOkToBlockEv
000baba0 T _ZN11epicsThread11setPriorityEj
000baa78 T _ZN11epicsThread11suspendSelfEv
000ba830 T _ZN11epicsThread12setOkToBlockEb
00000000 W _ZN11epicsThread20unableToCreateThreadD0Ev
00000000 W _ZN11epicsThread20unableToCreateThreadD1Ev
000baf50 T _ZN11epicsThread31printLastChanceExceptionMessageEPKcS1_
000ba994 T _ZN11epicsThread4exitEv
000baa24 T _ZN11epicsThread5sleepEd
000bad00 T _ZN11epicsThread5startEv
000baca8 T _ZN11epicsThread6resumeEv
000bb5a0 T _ZN11epicsThread8exitWaitEd
000bbd34 T _ZN11epicsThread8exitWaitEv
000bb218 T _ZN11epicsThread9beginWaitEv
000bada0 T _ZN11epicsThreadC1ER18epicsThreadRunablePKcjj
000bb068 T _ZN11epicsThreadC2ER18epicsThreadRunablePKcjj
000bb984 T _ZN11epicsThreadD1Ev
000bbb5c T _ZN11epicsThreadD2Ev
0007b4f4 T _ZN11getCallback10completionER10epicsGuardI10epicsMutexEjmPKv
0007b630 T _ZN11getCallback9exceptionER10epicsGuardI10epicsMutexEiPKcjm
0007b4d8 T _ZN11getCallbackC1ER16oldChannelNotifyPFv18event_handler_argsEPv
0007b3b0 T _ZN11getCallbackC2ER16oldChannelNotifyPFv18event_handler_argsEPv
0007b410 T _ZN11getCallbackD0Ev
0007b468 T _ZN11getCallbackD1Ev
0007b4a0 T _ZN11getCallbackD2Ev
0007b3cc T _ZN11getCallbackdlEPv
0007b7c8 T _ZN11getCallbacknwEj
0007c6ec T _ZN11putCallback10completionER10epicsGuardI10epicsMutexE
0007c810 T _ZN11putCallback9exceptionER10epicsGuardI10epicsMutexEiPKcjm
0007c6d0 T _ZN11putCallbackC1ER16oldChannelNotifyPFv18event_handler_argsEPv
0007c5a8 T _ZN11putCallbackC2ER16oldChannelNotifyPFv18event_handler_argsEPv
0007c608 T _ZN11putCallbackD0Ev
0007c660 T _ZN11putCallbackD1Ev
0007c698 T _ZN11putCallbackD2Ev
0007c5c4 T _ZN11putCallbackdlEPv
0007c9a8 T _ZN11putCallbacknwEj
000a4200 T _ZN11searchTimer12moveChannelsER10epicsGuardI10epicsMutexERS_
000a4f68 T _ZN11searchTimer13uninstallChanER10epicsGuardI10epicsMutexER4nciu
000a3bc0 T _ZN11searchTimer14installChannelER10epicsGuardI10epicsMutexER4nciu
000a54d4 T _ZN11searchTimer42uninstallChanDueToSuccessfulSearchResponseER10epicsGuardI10epicsMutexER4nciujbRK9epicsTime
000a4eb4 T _ZN11searchTimer5startER10epicsGuardI10epicsMutexE
000a499c T _ZN11searchTimer6expireERK9epicsTime
000a43e0 T _ZN11searchTimer8shutdownER10epicsGuardI10epicsMutexES3_
000a40c4 T _ZN11searchTimerC1ER17searchTimerNotifyR15epicsTimerQueuejR10epicsMutexb
000a3f88 T _ZN11searchTimerC2ER17searchTimerNotifyR15epicsTimerQueuejR10epicsMutexb
000a3d6c T _ZN11searchTimerD0Ev
000a3e84 T _ZN11searchTimerD1Ev
000a3c68 T _ZN11searchTimerD2Ev
0009d74c T _ZN12bheFreeStore7releaseEPv
0009d77c T _ZN12bheFreeStore8allocateEj
00000000 W _ZN12bheFreeStoreD0Ev
00000000 W _ZN12bheFreeStoreD1Ev
000996a4 T _ZN13SearchDestTCP13searchRequestER10epicsGuardI10epicsMutexEPKcj
0008f328 T _ZN13SearchDestTCP6enableEv
0008f314 T _ZN13SearchDestTCP7disableEv
0008fb94 T _ZN13SearchDestTCPC1ER3cacRK11osiSockAddr
0008f2cc T _ZN13SearchDestTCPC2ER3cacRK11osiSockAddr
00000000 W _ZN13SearchDestTCPD0Ev
00000000 W _ZN13SearchDestTCPD1Ev
00087bdc T _ZN13cacReadNotifyD0Ev
00087c14 T _ZN13cacReadNotifyD1Ev
00087c24 T _ZN13cacReadNotifyD2Ev
000a1828 T _ZN13hostNameCache19transactionCompleteEPKc
000a1330 T _ZN13hostNameCache7destroyEv
000a15b8 T _ZN13hostNameCacheC1ERK11osiSockAddrR19ipAddrToAsciiEngine
000a16f0 T _ZN13hostNameCacheC2ERK11osiSockAddrR19ipAddrToAsciiEngine
000a1364 T _ZN13hostNameCacheD0Ev
000a1438 T _ZN13hostNameCacheD1Ev
000a14f8 T _ZN13hostNameCacheD2Ev
000808fc T _ZN13localHostNameC1Ev
000809c8 T _ZN13localHostNameC2Ev
0008088c T _ZN13localHostNameD1Ev
000808c4 T _ZN13localHostNameD2Ev
00092af4 T _ZN13tcpRecvThread15validFillStatusER10epicsGuardI10epicsMutexERK12statusWireIO
0008f4c4 T _ZN13tcpRecvThread19interruptSocketRecvEv
00094094 T _ZN13tcpRecvThread3runEv
0008f62c T _ZN13tcpRecvThread5startEv
0009339c T _ZN13tcpRecvThread7connectER10epicsGuardI10epicsMutexE
0008f5fc T _ZN13tcpRecvThread8exitWaitEd
0008f59c T _ZN13tcpRecvThread8exitWaitEv
0008f8dc T _ZN13tcpRecvThreadC1ER6tcpiiuR10epicsMutexR16cacContextNotifyPKcjj
0008fae0 T _ZN13tcpRecvThreadC2ER6tcpiiuR10epicsMutexR16cacContextNotifyPKcjj
0008f68c T _ZN13tcpRecvThreadD0Ev
0008f6fc T _ZN13tcpRecvThreadD1Ev
0008f758 T _ZN13tcpRecvThreadD2Ev
0008f47c T _ZN13tcpSendThread19interruptSocketSendEv
00096624 T _ZN13tcpSendThread3runEv
0008f65c T _ZN13tcpSendThread5startEv
0008f5cc T _ZN13tcpSendThread8exitWaitEv
0008f990 T _ZN13tcpSendThreadC1ER6tcpiiuPKcjj
0008fa18 T _ZN13tcpSendThreadC2ER6tcpiiuPKcjj
0008f7b4 T _ZN13tcpSendThreadD0Ev
0008f824 T _ZN13tcpSendThreadD1Ev
0008f880 T _ZN13tcpSendThreadD2Ev
0008cb0c T _ZN13udpRecvThread3runEv
0008b4b8 T _ZN13udpRecvThread5startEv
0008b488 T _ZN13udpRecvThread8exitWaitEd
0008b610 T _ZN13udpRecvThreadC1ER6udpiiuR16cacContextNotifyR10epicsMutexPKcjj
0008b6a8 T _ZN13udpRecvThreadC2ER6udpiiuR16cacContextNotifyR10epicsMutexPKcjj
0008b4e8 T _ZN13udpRecvThreadD0Ev
0008b558 T _ZN13udpRecvThreadD1Ev
0008b5b4 T _ZN13udpRecvThreadD2Ev
00087c8c T _ZN14cacStateNotifyD0Ev
00087cc4 T _ZN14cacStateNotifyD1Ev
00087cd4 T _ZN14cacStateNotifyD2Ev
00087c34 T _ZN14cacWriteNotifyD0Ev
00087c6c T _ZN14cacWriteNotifyD1Ev
00087c7c T _ZN14cacWriteNotifyD2Ev
00000000 W _ZN14epicsSingletonI13localHostNameE6_buildEv
00000000 W _ZN14epicsSingletonI13localHostNameE8_destroyEPv
00000000 W _ZN14epicsSingletonI19timerQueueActiveMgrE12getReferenceEv
00000000 W _ZN14epicsSingletonI19timerQueueActiveMgrE6_buildEv
00000000 W _ZN14epicsSingletonI19timerQueueActiveMgrE8_destroyEPv
00000000 W _ZN14epicsSingletonI19timerQueueActiveMgrE9referenceC1ERKS2_
00000000 W _ZN14epicsSingletonI19timerQueueActiveMgrE9referenceC1ERS1_
00000000 W _ZN14epicsSingletonI19timerQueueActiveMgrE9referenceC2ERKS2_
00000000 W _ZN14epicsSingletonI19timerQueueActiveMgrE9referenceC2ERS1_
00000000 W _ZN14epicsSingletonI19timerQueueActiveMgrE9referenceD1Ev
00000000 W _ZN14epicsSingletonI19timerQueueActiveMgrE9referenceD2Ev
00000000 W _ZN14epicsSingletonI19timerQueueActiveMgrE9referenceaSERKS2_
00000000 W _ZN14epicsSingletonI19timerQueueActiveMgrE9referencedeEv
00000000 W _ZN14epicsSingletonI19timerQueueActiveMgrE9referenceptEv
00000000 W _ZN14epicsSingletonI19timerQueueActiveMgrEC1Ev
00000000 W _ZN14epicsSingletonI19timerQueueActiveMgrEC2Ev
000c7830 T _ZN14epicsTimerForC6expireERK9epicsTime
000c6be4 T _ZN14epicsTimerForC7destroyEv
000c6a2c T _ZN14epicsTimerForCC1ER10timerQueuePFvPvES2_
000c6ad4 T _ZN14epicsTimerForCC2ER10timerQueuePFvPvES2_
000c685c T _ZN14epicsTimerForCD0Ev
000c6904 T _ZN14epicsTimerForCD1Ev
000c6998 T _ZN14epicsTimerForCD2Ev
000c7a10 T _ZN14epicsTimerForCdlEPv
000c8b74 T _ZN14epicsTimerForCnwEj
000a2d70 T _ZN14repeaterClient11sendConfirmEv
000a29c8 T _ZN14repeaterClient11sendMessageEPKvj
000a25e0 T _ZN14repeaterClient6verifyEv
000a2e78 T _ZN14repeaterClient7connectEv
000a236c T _ZN14repeaterClientC1ERK11osiSockAddr
000a23a4 T _ZN14repeaterClientC2ERK11osiSockAddr
000a2448 T _ZN14repeaterClientD1Ev
000a2484 T _ZN14repeaterClientD2Ev
000a2984 T _ZN14repeaterClientdlEPv
000a26d8 T _ZN14repeaterClientdlEPvR10tsFreeListIS_Lj32E10epicsMutexE
000a374c T _ZN14repeaterClientnwEj
000a294c T _ZN14repeaterClientnwEjR10tsFreeListIS_Lj32E10epicsMutexE
000cc724 T _ZN15epicsTimerQueueD0Ev
000cc75c T _ZN15epicsTimerQueueD1Ev
000cc76c T _ZN15epicsTimerQueueD2Ev
0009a01c T _ZN15netReadNotifyIO10completionER10epicsGuardI10epicsMutexER10cacRecycle
00099f4c T _ZN15netReadNotifyIO10completionER10epicsGuardI10epicsMutexER10cacRecyclejmPKv
0009a24c T _ZN15netReadNotifyIO14isSubscriptionEv
0009a254 T _ZN15netReadNotifyIO23forceSubscriptionUpdateER10epicsGuardI10epicsMutexER4nciu
00099ee0 T _ZN15netReadNotifyIO7destroyER10epicsGuardI10epicsMutexER10cacRecycle
0009a0a4 T _ZN15netReadNotifyIO9exceptionER10epicsGuardI10epicsMutexER10cacRecycleiPKc
0009a16c T _ZN15netReadNotifyIO9exceptionER10epicsGuardI10epicsMutexER10cacRecycleiPKcjm
0009a438 T _ZN15netReadNotifyIOC1ER21privateInterfaceForIOR13cacReadNotify
0009a258 T _ZN15netReadNotifyIOC2ER21privateInterfaceForIOR13cacReadNotify
0009a370 T _ZN15netReadNotifyIOD0Ev
0009a3c8 T _ZN15netReadNotifyIOD1Ev
0009a400 T _ZN15netReadNotifyIOD2Ev
0009a2f0 T _ZN15netReadNotifyIOdlEPv
0009a4d0 T _ZN15netReadNotifyIOnwEj
0009b7ec T _ZN15netSubscription10completionER10epicsGuardI10epicsMutexER10cacRecycle
0009b6b8 T _ZN15netSubscription10completionER10epicsGuardI10epicsMutexER10cacRecyclejmPKv
0009b364 T _ZN15netSubscription14isSubscriptionEv
0009bafc T _ZN15netSubscription19subscribeIfRequiredER10epicsGuardI10epicsMutexER4nciu
0009b750 T _ZN15netSubscription21unsubscribeIfRequiredER10epicsGuardI10epicsMutexER4nciu
0009bb54 T _ZN15netSubscription23forceSubscriptionUpdateER10epicsGuardI10epicsMutexER4nciu
0009b2f8 T _ZN15netSubscription7destroyER10epicsGuardI10epicsMutexER10cacRecycle
0009b398 T _ZN15netSubscription9exceptionER10epicsGuardI10epicsMutexER10cacRecycleiPKc
0009b514 T _ZN15netSubscription9exceptionER10epicsGuardI10epicsMutexER10cacRecycleiPKcjm
0009bb8c T _ZN15netSubscriptionC1ER21privateInterfaceForIOjmjR14cacStateNotify
0009b9a4 T _ZN15netSubscriptionC2ER21privateInterfaceForIOjmjR14cacStateNotify
0009b8dc T _ZN15netSubscriptionD0Ev
0009b934 T _ZN15netSubscriptionD1Ev
0009b96c T _ZN15netSubscriptionD2Ev
0009b7a8 T _ZN15netSubscriptiondlEPv
0009bce4 T _ZN15netSubscriptionnwEj
0007b108 T _ZN15oldSubscription7currentER10epicsGuardI10epicsMutexEjmPKv
0007b22c T _ZN15oldSubscription9exceptionER10epicsGuardI10epicsMutexEiPKcjm
0007af98 T _ZN15oldSubscriptionC1ER10epicsGuardI10epicsMutexER16oldChannelNotifyR10cacChanneljmjPFv18event_handler_argsEPvPPS_
0007b050 T _ZN15oldSubscriptionC2ER10epicsGuardI10epicsMutexER16oldChannelNotifyR10cacChanneljmjPFv18event_handler_argsEPvPPS_
0007aed0 T _ZN15oldSubscriptionD0Ev
0007af28 T _ZN15oldSubscriptionD1Ev
0007af60 T _ZN15oldSubscriptionD2Ev
0007ae8c T _ZN15oldSubscriptiondlEPv
0009e55c T _ZN15syncGroupNotifyC1Ev
0009e5d0 T _ZN15syncGroupNotifyC2Ev
0009e578 T _ZN15syncGroupNotifyD0Ev
0009e5b0 T _ZN15syncGroupNotifyD1Ev
0009e5c0 T _ZN15syncGroupNotifyD2Ev
0009d02c T _ZN15tcpRecvWatchdog13connectNotifyER10epicsGuardI10epicsMutexE
0009cf44 T _ZN15tcpRecvWatchdog17sendTimeoutNotifyER10epicsGuardI10epicsMutexES3_
0009d228 T _ZN15tcpRecvWatchdog19beaconAnomalyNotifyER10epicsGuardI10epicsMutexE
0009d294 T _ZN15tcpRecvWatchdog19beaconArrivalNotifyER10epicsGuardI10epicsMutexE
0009cdc4 T _ZN15tcpRecvWatchdog19probeResponseNotifyER10epicsGuardI10epicsMutexE
0009d174 T _ZN15tcpRecvWatchdog20messageArrivalNotifyER10epicsGuardI10epicsMutexE
0009d0bc T _ZN15tcpRecvWatchdog25sendBacklogProgressNotifyER10epicsGuardI10epicsMutexE
0009c750 T _ZN15tcpRecvWatchdog6cancelEv
0009d33c T _ZN15tcpRecvWatchdog6expireERK9epicsTime
0009cd4c T _ZN15tcpRecvWatchdog8shutdownEv
0009c874 T _ZN15tcpRecvWatchdogC1ER10epicsMutexR16cacContextNotifyS1_R6tcpiiudR15epicsTimerQueue
0009cb18 T _ZN15tcpRecvWatchdogC2ER10epicsMutexR16cacContextNotifyS1_R6tcpiiudR15epicsTimerQueue
0009c954 T _ZN15tcpRecvWatchdogD0Ev
0009c9f8 T _ZN15tcpRecvWatchdogD1Ev
0009ca88 T _ZN15tcpRecvWatchdogD2Ev
0009c100 T _ZN15tcpSendWatchdog5startERK9epicsTime
0009c13c T _ZN15tcpSendWatchdog6cancelEv
0009c4c0 T _ZN15tcpSendWatchdog6expireERK9epicsTime
0009c16c T _ZN15tcpSendWatchdogC1ER10epicsMutexR16cacContextNotifyS1_R6tcpiiudR15epicsTimerQueue
0009c3f8 T _ZN15tcpSendWatchdogC2ER10epicsMutexR16cacContextNotifyS1_R6tcpiiudR15epicsTimerQueue
0009c234 T _ZN15tcpSendWatchdogD0Ev
0009c2d8 T _ZN15tcpSendWatchdogD1Ev
0009c368 T _ZN15tcpSendWatchdogD2Ev
00000000 W _ZN15wireRecvAdapterD0Ev
00000000 W _ZN15wireRecvAdapterD1Ev
00000000 W _ZN15wireSendAdapterD0Ev
00000000 W _ZN15wireSendAdapterD1Ev
000aa4e0 T _ZN16SingletonUntyped12decrRefCountEPFvPvE
000aa3c8 T _ZN16SingletonUntyped12incrRefCountEPFPvvE
0009d6f4 T _ZN16bheMemoryManagerD0Ev
0009d72c T _ZN16bheMemoryManagerD1Ev
0009d73c T _ZN16bheMemoryManagerD2Ev
00087b24 T _ZN16cacChannelNotifyD0Ev
00087b5c T _ZN16cacChannelNotifyD1Ev
00087b6c T _ZN16cacChannelNotifyD2Ev
00087b80 T _ZN16cacContextNotify32callbackProcessingCompleteNotifyEv
00087b7c T _ZN16cacContextNotify32callbackProcessingInitiateNotifyEv
00087b84 T _ZN16cacContextNotifyD0Ev
00087bbc T _ZN16cacContextNotifyD1Ev
00087bcc T _ZN16cacContextNotifyD2Ev
000595e0 T _ZN16dbSubscriptionIO10destructorER10epicsGuardI10epicsMutexE
00059284 T _ZN16dbSubscriptionIO11unsubscribeER10epicsGuardI10epicsMutexE
000590c4 T _ZN16dbSubscriptionIO14isSubscriptionEv
000599a4 T _ZN16dbSubscriptionIO22channelDeleteExceptionER10epicsGuardI10epicsMutexE
00059654 T _ZN16dbSubscriptionIOC1ER10epicsGuardI10epicsMutexERS1_R9dbContextR11dbChannelIOR6dbAddrR14cacStateNotifyjmjPv
000593d4 T _ZN16dbSubscriptionIOC2ER10epicsGuardI10epicsMutexERS1_R9dbContextR11dbChannelIOR6dbAddrR14cacStateNotifyjmjPv
0005938c T _ZN16dbSubscriptionIOD0Ev
000593c4 T _ZN16dbSubscriptionIOD1Ev
000591c8 T _ZN16dbSubscriptionIOD2Ev
00059184 T _ZN16dbSubscriptionIOdlEPv
000590c8 T _ZN16dbSubscriptionIOdlEPvR10tsFreeListIS_Lj256E14epicsMutexNOOPE
00059a68 T _ZN16dbSubscriptionIOnwEj
0005914c T _ZN16dbSubscriptionIOnwEjR10tsFreeListIS_Lj256E14epicsMutexNOOPE
000c76b8 T _ZN16epicsTimerNotify12expireStatusC1ENS_9restart_tE
000c7078 T _ZN16epicsTimerNotify12expireStatusC1ENS_9restart_tERKd
000c7898 T _ZN16epicsTimerNotify12expireStatusC2ENS_9restart_tE
000c7398 T _ZN16epicsTimerNotify12expireStatusC2ENS_9restart_tERKd
000c5e60 T _ZN16epicsTimerNotifyD0Ev
000c5e98 T _ZN16epicsTimerNotifyD1Ev
000c5ea8 T _ZN16epicsTimerNotifyD2Ev
0009a988 T _ZN16netWriteNotifyIO10completionER10epicsGuardI10epicsMutexER10cacRecycle
0009aa28 T _ZN16netWriteNotifyIO10completionER10epicsGuardI10epicsMutexER10cacRecyclejmPKv
0009ac58 T _ZN16netWriteNotifyIO14isSubscriptionEv
0009ac60 T _ZN16netWriteNotifyIO23forceSubscriptionUpdateER10epicsGuardI10epicsMutexER4nciu
0009a91c T _ZN16netWriteNotifyIO7destroyER10epicsGuardI10epicsMutexER10cacRecycle
0009aab0 T _ZN16netWriteNotifyIO9exceptionER10epicsGuardI10epicsMutexER10cacRecycleiPKc
0009ab78 T _ZN16netWriteNotifyIO9exceptionER10epicsGuardI10epicsMutexER10cacRecycleiPKcjm
0009ae44 T _ZN16netWriteNotifyIOC1ER21privateInterfaceForIOR14cacWriteNotify
0009ac64 T _ZN16netWriteNotifyIOC2ER21privateInterfaceForIOR14cacWriteNotify
0009ad7c T _ZN16netWriteNotifyIOD0Ev
0009add4 T _ZN16netWriteNotifyIOD1Ev
0009ae0c T _ZN16netWriteNotifyIOD2Ev
0009acfc T _ZN16netWriteNotifyIOdlEPv
0009aedc T _ZN16netWriteNotifyIOnwEj
000797f8 T _ZN16oldChannelNotify10destructorER10epicsGuardI10epicsMutexE
00079ca4 T _ZN16oldChannelNotify13connectNotifyER10epicsGuardI10epicsMutexE
00078490 T _ZN16oldChannelNotify13readExceptionER10epicsGuardI10epicsMutexEiPKcjmPv
00078440 T _ZN16oldChannelNotify14writeExceptionER10epicsGuardI10epicsMutexEiPKcjm
00079b8c T _ZN16oldChannelNotify16disconnectNotifyER10epicsGuardI10epicsMutexE
00079a90 T _ZN16oldChannelNotify18accessRightsNotifyER10epicsGuardI10epicsMutexERK14caAccessRights
00078334 T _ZN16oldChannelNotify21serviceShutdownNotifyER10epicsGuardI10epicsMutexE
0007839c T _ZN16oldChannelNotify4readER10epicsGuardI10epicsMutexEjmR13cacReadNotifyPj
000783cc T _ZN16oldChannelNotify5writeER10epicsGuardI10epicsMutexEjmPKvR14cacWriteNotifyPj
00078360 T _ZN16oldChannelNotify9exceptionER10epicsGuardI10epicsMutexEiPKc
00079dc0 T _ZN16oldChannelNotifyC1ER10epicsGuardI10epicsMutexER17ca_client_contextPKcPFv23connection_handler_argsEPvj
000785a8 T _ZN16oldChannelNotifyC2ER10epicsGuardI10epicsMutexER17ca_client_contextPKcPFv23connection_handler_argsEPvj
000784e0 T _ZN16oldChannelNotifyD0Ev
00078538 T _ZN16oldChannelNotifyD1Ev
00078570 T _ZN16oldChannelNotifyD2Ev
000783fc T _ZN16oldChannelNotifydlEPv
0007aa70 T _ZN16oldChannelNotifynwEj
000c90cc T _ZN16timerQueueActive10rescheduleEv
000c912c T _ZN16timerQueueActive11createTimerEv
000c90fc T _ZN16timerQueueActive15createTimerForCEPFvPvES0_
000c8f9c T _ZN16timerQueueActive18getEpicsTimerQueueEv
000c915c T _ZN16timerQueueActive32_printLastChanceExceptionMessageEPKcS1_
000c9248 T _ZN16timerQueueActive3runEv
000c8f90 T _ZN16timerQueueActive7quantumEv
000c9e98 T _ZN16timerQueueActiveC1ERN14epicsSingletonI19timerQueueActiveMgrE9referenceEbj
000ca1e8 T _ZN16timerQueueActiveC2ERN14epicsSingletonI19timerQueueActiveMgrE9referenceEbj
000c956c T _ZN16timerQueueActiveD0Ev
000c9888 T _ZN16timerQueueActiveD1Ev
000c9b90 T _ZN16timerQueueActiveD2Ev
0006fa94 T _ZN17CACChannelPrivateC1Ev
0006f9cc T _ZN17CACChannelPrivateC2Ev
000757ec T _ZN17ca_client_context10lookupCASGER10epicsGuardI10epicsMutexEj
000759b4 T _ZN17ca_client_context11installCASGER10epicsGuardI10epicsMutexER4CASG
00075a5c T _ZN17ca_client_context13createChannelER10epicsGuardI10epicsMutexEPKcR16cacChannelNotifyj
00075930 T _ZN17ca_client_context13uninstallCASGER10epicsGuardI10epicsMutexER4CASG
00073c7c T _ZN17ca_client_context14_sendWakeupMsgEv
00073be4 T _ZN17ca_client_context14destroyGetCopyER10epicsGuardI10epicsMutexER7getCopy
00004748 B _ZN17ca_client_context15pDefaultServiceE
00073ce8 T _ZN17ca_client_context17attachToClientCtxEv
00075e08 T _ZN17ca_client_context18destroyGetCallbackER10epicsGuardI10epicsMutexER11getCallback
00075d70 T _ZN17ca_client_context18destroyPutCallbackER10epicsGuardI10epicsMutexER11putCallback
00075cd8 T _ZN17ca_client_context19destroySubscriptionER10epicsGuardI10epicsMutexER15oldSubscription
00003dac R _ZN17ca_client_context19flushBlockThresholdE
0007475c T _ZN17ca_client_context20changeExceptionEventEPFv22exception_handler_argsEPv
00073b38 T _ZN17ca_client_context20createNetworkContextER10epicsMutexS1_
000746ac T _ZN17ca_client_context20replaceErrLogHandlerEPFiPKcP13__va_list_tagE
00076ad8 T _ZN17ca_client_context21installDefaultServiceER10cacService
00075b14 T _ZN17ca_client_context22decrementOutstandingIOER10epicsGuardI10epicsMutexEj
00075c04 T _ZN17ca_client_context22incrementOutstandingIOER10epicsGuardI10epicsMutexEj
0000474c B _ZN17ca_client_context27pDefaultServiceInstallMutexE
000749d0 T _ZN17ca_client_context29eliminateExcessiveSendBacklogER10epicsGuardI10epicsMutexER10cacChannel
00075050 T _ZN17ca_client_context31blockForEventAndEnableCallbacksER10epicsEventRKd
000742ac T _ZN17ca_client_context32callbackProcessingCompleteNotifyEv
00074360 T _ZN17ca_client_context32callbackProcessingInitiateNotifyEv
000745e0 T _ZN17ca_client_context33registerForFileDescriptorCallBackEPFvPviiES0_
00073b00 T _ZN17ca_client_context5flushER10epicsGuardI10epicsMutexE
00075160 T _ZN17ca_client_context6pendIOERKd
000740dc T _ZN17ca_client_context6signalEiPKciS1_z
00073ebc T _ZN17ca_client_context7vSignalEiPKciS1_P13__va_list_tag
00074ecc T _ZN17ca_client_context9exceptionER10epicsGuardI10epicsMutexEiPKcS5_j
00074cc0 T _ZN17ca_client_context9exceptionER10epicsGuardI10epicsMutexEiPKcS5_jR16oldChannelNotifyjmj
000753e0 T _ZN17ca_client_context9pendEventERKd
00077988 T _ZN17ca_client_contextC1Eb
00076fe0 T _ZN17ca_client_contextC2Eb
00075ea0 T _ZN17ca_client_contextD0Ev
000762c0 T _ZN17ca_client_contextD1Ev
000766cc T _ZN17ca_client_contextD2Ev
000a3b68 T _ZN17searchTimerNotifyD0Ev
000a3ba0 T _ZN17searchTimerNotifyD1Ev
000a3bb0 T _ZN17searchTimerNotifyD2Ev
000cad94 T _ZN17timerQueuePassive11createTimerEv
000cad64 T _ZN17timerQueuePassive15createTimerForCEPFvPvES0_
000cacbc T _ZN17timerQueuePassive18getEpicsTimerQueueEv
000cad34 T _ZN17timerQueuePassive7processERK9epicsTime
000cb050 T _ZN17timerQueuePassiveC1ER21epicsTimerQueueNotify
000cb158 T _ZN17timerQueuePassiveC2ER21epicsTimerQueueNotify
000cae8c T _ZN17timerQueuePassiveD0Ev
000caf30 T _ZN17timerQueuePassiveD1Ev
000cafc0 T _ZN17timerQueuePassiveD2Ev
00000000 W _ZN18chronIntIdResTableI4CASGED0Ev
00000000 W _ZN18chronIntIdResTableI4CASGED1Ev
00000000 W _ZN18chronIntIdResTableI4nciuED0Ev
00000000 W _ZN18chronIntIdResTableI4nciuED1Ev
00000000 W _ZN18chronIntIdResTableI8baseNMIUED0Ev
00000000 W _ZN18chronIntIdResTableI8baseNMIUED1Ev
00000000 W _ZN18chronIntIdResTableI8dbBaseIOED0Ev
00000000 W _ZN18chronIntIdResTableI8dbBaseIOED1Ev
0005a808 T _ZN18dbPutNotifyBlocker10destructorER10epicsGuardI10epicsMutexE
0005a250 T _ZN18dbPutNotifyBlocker14expandValueBufER10epicsGuardI10epicsMutexEm
00059e84 T _ZN18dbPutNotifyBlocker14isSubscriptionEv
0005a31c T _ZN18dbPutNotifyBlocker17initiatePutNotifyER10epicsGuardI10epicsMutexER14cacWriteNotifyR6dbAddrjmPKv
0005a6f0 T _ZN18dbPutNotifyBlocker6cancelER10epicsGuardI10epicsMutexE
0005aa30 T _ZN18dbPutNotifyBlockerC1ER10epicsMutex
00059fb4 T _ZN18dbPutNotifyBlockerC2ER10epicsMutex
0005a8cc T _ZN18dbPutNotifyBlockerD0Ev
0005a950 T _ZN18dbPutNotifyBlockerD1Ev
0005a9c0 T _ZN18dbPutNotifyBlockerD2Ev
00059ec4 T _ZN18dbPutNotifyBlockerdlEPv
00059e8c T _ZN18dbPutNotifyBlockerdlEPvR10tsFreeListIS_Lj64E14epicsMutexNOOPE
0005ab08 T _ZN18dbPutNotifyBlockernwEj
00059f08 T _ZN18dbPutNotifyBlockernwEjR10tsFreeListIS_Lj64E14epicsMutexNOOPE
000ba398 T _ZN18epicsThreadRunable3runEv
000ba3cc T _ZN18epicsThreadRunableD0Ev
000ba404 T _ZN18epicsThreadRunableD1Ev
000ba414 T _ZN18epicsThreadRunableD2Ev
000a1258 T _ZN19comBufMemoryManagerD0Ev
000a1290 T _ZN19comBufMemoryManagerD1Ev
000a12a0 T _ZN19comBufMemoryManagerD2Ev
000b9e78 T _ZN19ipAddrToAsciiEngine8allocateEv
000b79b0 T _ZN19ipAddrToAsciiEngineD0Ev
000b79e8 T _ZN19ipAddrToAsciiEngineD1Ev
000b79f8 T _ZN19ipAddrToAsciiEngineD2Ev
000a60c8 T _ZN19repeaterTimerNotifyD0Ev
000a6100 T _ZN19repeaterTimerNotifyD1Ev
000a6110 T _ZN19repeaterTimerNotifyD2Ev
0007efe4 T _ZN19syncGroupReadNotify10completionER10epicsGuardI10epicsMutexEjmPKv
0007f5b8 T _ZN19syncGroupReadNotify5beginER10epicsGuardI10epicsMutexEjm
0007ed48 T _ZN19syncGroupReadNotify6cancelER10epicsGuardI10epicsMutexE
0007eda0 T _ZN19syncGroupReadNotify7destroyER10epicsGuardI10epicsMutexER11casgRecycle
0007f460 T _ZN19syncGroupReadNotify7factoryER10tsFreeListIS_Lj128E14epicsMutexNOOPER4CASGP16oldChannelNotifyPv
0007ef40 T _ZN19syncGroupReadNotify9exceptionER10epicsGuardI10epicsMutexEiPKcjm
00000000 W _ZN19syncGroupReadNotify9ioPendingER10epicsGuardI10epicsMutexE
0007f3c8 T _ZN19syncGroupReadNotifyC1ER4CASGP16oldChannelNotifyPv
0007f520 T _ZN19syncGroupReadNotifyC2ER4CASGP16oldChannelNotifyPv
0007f0f0 T _ZN19syncGroupReadNotifyD0Ev
0007f1f0 T _ZN19syncGroupReadNotifyD1Ev
0007f2dc T _ZN19syncGroupReadNotifyD2Ev
0007ee7c T _ZN19syncGroupReadNotifydlEPv
0007ee0c T _ZN19syncGroupReadNotifydlEPvR10tsFreeListIS_Lj128E14epicsMutexNOOPE
0007f67c T _ZN19syncGroupReadNotifynwEj
0007ee44 T _ZN19syncGroupReadNotifynwEjR10tsFreeListIS_Lj128E14epicsMutexNOOPE
000ca8a4 T _ZN19timerQueueActiveMgr7releaseER25epicsTimerQueueActiveForC
000caa20 T _ZN19timerQueueActiveMgr8allocateERN14epicsSingletonIS_E9referenceEbj
000ca858 T _ZN19timerQueueActiveMgrC1Ev
000ca80c T _ZN19timerQueueActiveMgrC2Ev
000cac28 T _ZN19timerQueueActiveMgrD1Ev
000ca778 T _ZN19timerQueueActiveMgrD2Ev
0007fd3c T _ZN20syncGroupWriteNotify10completionER10epicsGuardI10epicsMutexE
00080268 T _ZN20syncGroupWriteNotify5beginER10epicsGuardI10epicsMutexEjmPKv
0007fa98 T _ZN20syncGroupWriteNotify6cancelER10epicsGuardI10epicsMutexE
0007faf0 T _ZN20syncGroupWriteNotify7destroyER10epicsGuardI10epicsMutexER11casgRecycle
00080130 T _ZN20syncGroupWriteNotify7factoryER10tsFreeListIS_Lj128E14epicsMutexNOOPER4CASGP16oldChannelNotify
0007fc8c T _ZN20syncGroupWriteNotify9exceptionER10epicsGuardI10epicsMutexEiPKcjm
00000000 W _ZN20syncGroupWriteNotify9ioPendingER10epicsGuardI10epicsMutexE
000800a8 T _ZN20syncGroupWriteNotifyC1ER4CASGP16oldChannelNotify
000801e0 T _ZN20syncGroupWriteNotifyC2ER4CASGP16oldChannelNotify
0007fdd0 T _ZN20syncGroupWriteNotifyD0Ev
0007fed0 T _ZN20syncGroupWriteNotifyD1Ev
0007ffbc T _ZN20syncGroupWriteNotifyD2Ev
0007fbcc T _ZN20syncGroupWriteNotifydlEPv
0007fb5c T _ZN20syncGroupWriteNotifydlEPvR10tsFreeListIS_Lj128E14epicsMutexNOOPE
00080334 T _ZN20syncGroupWriteNotifynwEj
0007fb94 T _ZN20syncGroupWriteNotifynwEjR10tsFreeListIS_Lj128E14epicsMutexNOOPE
000bd294 T _ZN21epicsTimeLoadTimeInitC1Ev
000bdb14 T _ZN21epicsTimeLoadTimeInitC2Ev
000ca538 T _ZN21epicsTimerQueueActive8allocateEbj
000c9404 T _ZN21epicsTimerQueueActiveD0Ev
000c945c T _ZN21epicsTimerQueueActiveD1Ev
000c9494 T _ZN21epicsTimerQueueActiveD2Ev
000c5eb8 T _ZN21epicsTimerQueueNotifyD0Ev
000c5ef0 T _ZN21epicsTimerQueueNotifyD1Ev
000c5f00 T _ZN21epicsTimerQueueNotifyD2Ev
000b7a60 T _ZN21ipAddrToAsciiCallBackD0Ev
000b7a98 T _ZN21ipAddrToAsciiCallBackD1Ev
000b7aa8 T _ZN21ipAddrToAsciiCallBackD2Ev
00000000 W _ZN21privateInterfaceForIOD0Ev
00000000 W _ZN21privateInterfaceForIOD1Ev
00080b14 T _ZN22cacComBufMemoryManager7releaseEPv
00080ef4 T _ZN22cacComBufMemoryManager8allocateEj
00000000 W _ZN22cacComBufMemoryManagerD0Ev
00000000 W _ZN22cacComBufMemoryManagerD1Ev
000ba958 T _ZN22epicsThreadPrivateBase32throwUnableToCreateThreadPrivateEv
000cb0cc T _ZN22epicsTimerQueuePassive6createER21epicsTimerQueueNotify
000cadc4 T _ZN22epicsTimerQueuePassiveD0Ev
000cae1c T _ZN22epicsTimerQueuePassiveD1Ev
000cae54 T _ZN22epicsTimerQueuePassiveD2Ev
000a60bc T _ZN22repeaterSubscribeTimer13confirmNotifyEv
000a6078 T _ZN22repeaterSubscribeTimer5startEv
000a65c4 T _ZN22repeaterSubscribeTimer6expireERK9epicsTime
000a649c T _ZN22repeaterSubscribeTimer8shutdownER10epicsGuardI10epicsMutexES3_
000a632c T _ZN22repeaterSubscribeTimerC1ER19repeaterTimerNotifyR15epicsTimerQueueR10epicsMutexR16cacContextNotify
000a63e4 T _ZN22repeaterSubscribeTimerC2ER19repeaterTimerNotifyR15epicsTimerQueueR10epicsMutexR16cacContextNotify
000a6168 T _ZN22repeaterSubscribeTimerD0Ev
000a620c T _ZN22repeaterSubscribeTimerD1Ev
000a629c T _ZN22repeaterSubscribeTimerD2Ev
000a5f94 T _ZN23disconnectGovernorTimer11installChanER10epicsGuardI10epicsMutexER4nciu
000a56dc T _ZN23disconnectGovernorTimer13uninstallChanER10epicsGuardI10epicsMutexER4nciu
000a5640 T _ZN23disconnectGovernorTimer5startEv
000a5c28 T _ZN23disconnectGovernorTimer6expireERK9epicsTime
000a5d8c T _ZN23disconnectGovernorTimer8shutdownER10epicsGuardI10epicsMutexES3_
000a5a64 T _ZN23disconnectGovernorTimerC1ER24disconnectGovernorNotifyR15epicsTimerQueueR10epicsMutex
000a59c4 T _ZN23disconnectGovernorTimerC2ER24disconnectGovernorNotifyR15epicsTimerQueueR10epicsMutex
000a5800 T _ZN23disconnectGovernorTimerD0Ev
000a58a4 T _ZN23disconnectGovernorTimerD1Ev
000a5934 T _ZN23disconnectGovernorTimerD2Ev
000a1a80 T _ZN23msgForMultiplyDefinedPV19transactionCompleteEPKc
000a1d98 T _ZN23msgForMultiplyDefinedPVC1ER19ipAddrToAsciiEngineR28callbackForMultiplyDefinedPVPKcS5_
000a1e74 T _ZN23msgForMultiplyDefinedPVC2ER19ipAddrToAsciiEngineR28callbackForMultiplyDefinedPVPKcS5_
000a1bd4 T _ZN23msgForMultiplyDefinedPVD0Ev
000a1c78 T _ZN23msgForMultiplyDefinedPVD1Ev
000a1d08 T _ZN23msgForMultiplyDefinedPVD2Ev
000a1b1c T _ZN23msgForMultiplyDefinedPVdlEPv
000a1b60 T _ZN23msgForMultiplyDefinedPVdlEPvR10tsFreeListIS_Lj16E10epicsMutexE
000a1f50 T _ZN23msgForMultiplyDefinedPVnwEj
000a1b9c T _ZN23msgForMultiplyDefinedPVnwEjR10tsFreeListIS_Lj16E10epicsMutexE
0005b1d0 T _ZN24dbContextReadNotifyCache14callReadNotifyER10epicsGuardI10epicsMutexER6dbAddrjmR13cacReadNotify
0005af44 T _ZN24dbContextReadNotifyCacheC1ER10epicsMutex
0005af8c T _ZN24dbContextReadNotifyCacheC2ER10epicsMutex
000a5684 T _ZN24disconnectGovernorNotifyD0Ev
000a56bc T _ZN24disconnectGovernorNotifyD1Ev
000a56cc T _ZN24disconnectGovernorNotifyD2Ev
000bc9d8 T _ZN24epicsDeadlockDetectMutex4lockEv
000bc098 T _ZN24epicsDeadlockDetectMutex6unlockEv
000bcaf4 T _ZN24epicsDeadlockDetectMutex7tryLockEv
000bc788 T _ZN24epicsDeadlockDetectMutexC1Ej
000bc828 T _ZN24epicsDeadlockDetectMutexC2Ej
000bc4b8 T _ZN24epicsDeadlockDetectMutexD1Ev
000bc4e4 T _ZN24epicsDeadlockDetectMutexD2Ev
000b7a08 T _ZN24ipAddrToAsciiTransactionD0Ev
000b7a40 T _ZN24ipAddrToAsciiTransactionD1Ev
000b7a50 T _ZN24ipAddrToAsciiTransactionD2Ev
000c6700 T _ZN25epicsTimerQueueActiveForC7releaseEv
000c6b7c T _ZN25epicsTimerQueueActiveForCC1ERN14epicsSingletonI19timerQueueActiveMgrE9referenceEbj
000c67f4 T _ZN25epicsTimerQueueActiveForCC2ERN14epicsSingletonI19timerQueueActiveMgrE9referenceEbj
000c6c40 T _ZN25epicsTimerQueueActiveForCD0Ev
000c6cb0 T _ZN25epicsTimerQueueActiveForCD1Ev
000c67a4 T _ZN25epicsTimerQueueActiveForCD2Ev
000c5c24 T _ZN26epicsTimerQueuePassiveForC10rescheduleEv
000c5c84 T _ZN26epicsTimerQueuePassiveForC7destroyEv
000c5c54 T _ZN26epicsTimerQueuePassiveForC7quantumEv
000c64bc T _ZN26epicsTimerQueuePassiveForCC1EPFvPvEPFdS0_ES0_
000c6644 T _ZN26epicsTimerQueuePassiveForCC2EPFvPvEPFdS0_ES0_
000c62ec T _ZN26epicsTimerQueuePassiveForCD0Ev
000c6394 T _ZN26epicsTimerQueuePassiveForCD1Ev
000c6428 T _ZN26epicsTimerQueuePassiveForCD2Ev
0000485c B _ZN26ipAddrToAsciiEnginePrivate12pGlobalMutexE
00004868 B _ZN26ipAddrToAsciiEnginePrivate15shutdownRequestE
000b7eec T _ZN26ipAddrToAsciiEnginePrivate17createTransactionEv
00004864 B _ZN26ipAddrToAsciiEnginePrivate18numberOfReferencesE
000b935c T _ZN26ipAddrToAsciiEnginePrivate3runEv
00004860 B _ZN26ipAddrToAsciiEnginePrivate7pEngineE
000b8690 T _ZN26ipAddrToAsciiEnginePrivate7releaseEv
000b985c T _ZN26ipAddrToAsciiEnginePrivateC1Ev
000b965c T _ZN26ipAddrToAsciiEnginePrivateC2Ev
000b8848 T _ZN26ipAddrToAsciiEnginePrivateD0Ev
000b7c88 T _ZN26ipAddrToAsciiEnginePrivateD1Ev
000b81fc T _ZN26ipAddrToAsciiEnginePrivateD2Ev
000ca708 T _ZN26timerQueueActiveMgrPrivateC1Ev
000ca6f0 T _ZN26timerQueueActiveMgrPrivateC2Ev
000ca720 T _ZN26timerQueueActiveMgrPrivateD0Ev
000ca758 T _ZN26timerQueueActiveMgrPrivateD1Ev
000ca768 T _ZN26timerQueueActiveMgrPrivateD2Ev
000a1ac4 T _ZN28callbackForMultiplyDefinedPVD0Ev
000a1afc T _ZN28callbackForMultiplyDefinedPVD1Ev
000a1b0c T _ZN28callbackForMultiplyDefinedPVD2Ev
000b8068 T _ZN31ipAddrToAsciiTransactionPrivate13ipAddrToAsciiERK11osiSockAddrR21ipAddrToAsciiCallBack
000b7e98 T _ZN31ipAddrToAsciiTransactionPrivate7releaseEv
000b7ab8 T _ZN31ipAddrToAsciiTransactionPrivateC1ER26ipAddrToAsciiEnginePrivate
000b7b2c T _ZN31ipAddrToAsciiTransactionPrivateC2ER26ipAddrToAsciiEnginePrivate
000b8a6c T _ZN31ipAddrToAsciiTransactionPrivateD0Ev
000b8d74 T _ZN31ipAddrToAsciiTransactionPrivateD1Ev
000b9068 T _ZN31ipAddrToAsciiTransactionPrivateD2Ev
000b7ba0 T _ZN31ipAddrToAsciiTransactionPrivatedlEPv
000b9a5c T _ZN31ipAddrToAsciiTransactionPrivatenwEj
0005b080 T _ZN33dbContextReadNotifyCacheAllocator22reclaimAllCacheEntriesEv
0005afd4 T _ZN33dbContextReadNotifyCacheAllocator4freeEPc
0005b0ec T _ZN33dbContextReadNotifyCacheAllocator5allocEm
0005af34 T _ZN33dbContextReadNotifyCacheAllocatorC1Ev
0005af24 T _ZN33dbContextReadNotifyCacheAllocatorC2Ev
0005b178 T _ZN33dbContextReadNotifyCacheAllocatorD1Ev
0005b1a4 T _ZN33dbContextReadNotifyCacheAllocatorD2Ev
0009e040 T _ZN3bhe11registerIIUER10epicsGuardI10epicsMutexER6tcpiiu
0009dc0c T _ZN3bhe12updatePeriodER10epicsGuardI10epicsMutexERK9epicsTimeS6_jj
0009df5c T _ZN3bhe13unregisterIIUER10epicsGuardI10epicsMutexER6tcpiiu
0009d6f0 T _ZN3bhe16logBeaconDiscardEjRK9epicsTime
0009d9bc T _ZN3bhe19beaconAnomalyNotifyER10epicsGuardI10epicsMutexE
0009da50 T _ZN3bheC1ER10epicsMutexRK9epicsTimejRK10inetAddrID
0009d7f0 T _ZN3bheC2ER10epicsMutexRK9epicsTimejRK10inetAddrID
0009d6ec T _ZN3bheD1Ev
0009d6e8 T _ZN3bheD2Ev
0009d7ac T _ZN3bhedlEPv
0009e140 T _ZN3bhenwEj
0008454c T _ZN3cac10destroyIIUER6tcpiiu
000835ec T _ZN3cac10writeExcepER15callbackManagerR6tcpiiuRK15caHdrLargeArrayPKcj
00084100 T _ZN3cac12beaconNotifyERK10inetAddrIDRK9epicsTimejj
00081474 T _ZN3cac12defaultExcepER15callbackManagerR6tcpiiuRK15caHdrLargeArrayPKcj
000819f8 T _ZN3cac13createChannelER10epicsGuardI10epicsMutexEPKcR16cacChannelNotifyj
00080eac T _ZN3cac13eventAddExcepER15callbackManagerR6tcpiiuRK15caHdrLargeArrayPKcj
00081030 T _ZN3cac13versionActionER15callbackManagerR6tcpiiuRK9epicsTimeRK15caHdrLargeArrayPv
00084990 T _ZN3cac14destroyChannelER10epicsGuardI10epicsMutexER4nciu
00080ff8 T _ZN3cac14echoRespActionER15callbackManagerR6tcpiiuRK9epicsTimeRK15caHdrLargeArrayPv
000815ac T _ZN3cac14readRespActionER15callbackManagerR6tcpiiuRK9epicsTimeRK15caHdrLargeArrayPv
00082730 T _ZN3cac15disconnectAllIOER10epicsGuardI10epicsMutexES3_R4nciuR8tsDLListI8baseNMIUE
00082efc T _ZN3cac15eventRespActionER15callbackManagerR6tcpiiuRK9epicsTimeRK15caHdrLargeArrayPv
00080a9c T _ZN3cac15executeResponseER15callbackManagerR6tcpiiuRK9epicsTimeR15caHdrLargeArrayPc
00082088 T _ZN3cac15initiateConnectER10epicsGuardI10epicsMutexER4nciuRP6netiiu
00080cb0 T _ZN3cac15readNotifyExcepER15callbackManagerR6tcpiiuRK15caHdrLargeArrayPKcj
00003dd0 R _ZN3cac15tcpJumpTableCACE
00081224 T _ZN3cac16badTCPRespActionER15callbackManagerR6tcpiiuRK9epicsTimeRK15caHdrLargeArrayPv
00080f24 T _ZN3cac16searchRespActionER15callbackManagerR6tcpiiuRK9epicsTimeRK15caHdrLargeArrayPv
00080c68 T _ZN3cac16writeNotifyExcepER15callbackManagerR6tcpiiuRK15caHdrLargeArrayPKcj
000821e8 T _ZN3cac17disconnectChannelER10epicsGuardI10epicsMutexES3_R4nciu
00080d40 T _ZN3cac17ioExceptionNotifyEjiPKcjm
000828ac T _ZN3cac17readNotifyRequestER10epicsGuardI10epicsMutexER4nciuR21privateInterfaceForIOjmR13cacReadNotify
000823e4 T _ZN3cac18registerSearchDestER10epicsGuardI10epicsMutexER10SearchDest
00082c48 T _ZN3cac18writeNotifyRequestER10epicsGuardI10epicsMutexER4nciuR21privateInterfaceForIOjmPKvR14cacWriteNotify
000810f8 T _ZN3cac19exceptionRespActionER15callbackManagerR6tcpiiuRK9epicsTimeRK15caHdrLargeArrayPv
000824a4 T _ZN3cac19recycleReadNotifyIOER10epicsGuardI10epicsMutexER15netReadNotifyIO
00082648 T _ZN3cac19recycleSubscriptionER10epicsGuardI10epicsMutexER15netSubscription
00082a68 T _ZN3cac19subscriptionRequestER10epicsGuardI10epicsMutexER4nciuR21privateInterfaceForIOjmjR14cacStateNotifyb
000816b4 T _ZN3cac20readNotifyRespActionER15callbackManagerR6tcpiiuRK9epicsTimeRK15caHdrLargeArrayPv
000826bc T _ZN3cac20recycleWriteNotifyIOER10epicsGuardI10epicsMutexER16netWriteNotifyIO
00003eb0 R _ZN3cac20tcpExcepJumpTableCACE
000818a8 T _ZN3cac21writeNotifyRespActionER15callbackManagerR6tcpiiuRK9epicsTimeRK15caHdrLargeArrayPv
00081308 T _ZN3cac22accessRightsRespActionER15callbackManagerR6tcpiiuRK9epicsTimeRK15caHdrLargeArrayPv
00080a94 T _ZN3cac22clearChannelRespActionER15callbackManagerR6tcpiiuRK9epicsTimeRK15caHdrLargeArrayPv
00083d6c T _ZN3cac23createChannelRespActionER15callbackManagerR6tcpiiuRK9epicsTimeRK15caHdrLargeArrayPv
00083134 T _ZN3cac23findOrCreateVirtCircuitER10epicsGuardI10epicsMutexERK11osiSockAddrjRP6tcpiiujP13SearchDestTCP
00084380 T _ZN3cac23pvMultiplyDefinedNotifyER23msgForMultiplyDefinedPVPKcS3_S3_
00083c24 T _ZN3cac23verifyAndDisconnectChanER15callbackManagerR6tcpiiuRK9epicsTimeRK15caHdrLargeArrayPv
000810b0 T _ZN3cac24lowestPriorityLevelAboveEj
00081068 T _ZN3cac25highestPriorityLevelBelowEj
0008374c T _ZN3cac25transferChanToVirtCircuitEjjtmjRK11osiSockAddrRK9epicsTime
00080b44 T _ZN3cac29ioExceptionNotifyAndUninstallEjiPKcjm
00081f34 T _ZN3cac5flushER10epicsGuardI10epicsMutexE
00082518 T _ZN3cac9destroyIOER10epicsGuardI10epicsMutexERKjR4nciu
00082308 T _ZN3cac9exceptionER10epicsGuardI10epicsMutexES3_iPKcS5_j
00080cf8 T _ZN3cac9readExcepER15callbackManagerR6tcpiiuRK15caHdrLargeArrayPKcj
000855e0 T _ZN3cacC1ER10epicsMutexS1_R16cacContextNotify
00086104 T _ZN3cacC2ER10epicsMutexS1_R16cacContextNotify
00086c28 T _ZN3cacD0Ev
000873b0 T _ZN3cacD1Ev
00084e6c T _ZN3cacD2Ev
0007e7f0 T _ZN4CASG10destructorER10epicsGuardI10epicsMutexE
0007e2d0 T _ZN4CASG10ioCompleteER10epicsGuardI10epicsMutexE
0007ce7c T _ZN4CASG13printFormatedEPKcz
0007d76c T _ZN4CASG16completionNotifyER10epicsGuardI10epicsMutexER15syncGroupNotify
0007df40 T _ZN4CASG16destroyPendingIOER10epicsGuardI10epicsMutexE
0007e164 T _ZN4CASG18destroyCompletedIOER10epicsGuardI10epicsMutexE
0007d624 T _ZN4CASG26recycleSyncGroupReadNotifyER10epicsGuardI10epicsMutexER19syncGroupReadNotify
0007d6c8 T _ZN4CASG27recycleSyncGroupWriteNotifyER10epicsGuardI10epicsMutexER20syncGroupWriteNotify
0007d8d8 T _ZN4CASG3getER10epicsGuardI10epicsMutexEP16oldChannelNotifyjmPv
0007dac8 T _ZN4CASG3putER10epicsGuardI10epicsMutexEP16oldChannelNotifyjmPKv
0007e424 T _ZN4CASG5blockEP10epicsGuardI10epicsMutexERS2_d
0007e374 T _ZN4CASG5resetER10epicsGuardI10epicsMutexE
0007d544 T _ZN4CASG9exceptionER10epicsGuardI10epicsMutexEiPKcS5_j
0007d434 T _ZN4CASG9exceptionER10epicsGuardI10epicsMutexEiPKcS5_jR16oldChannelNotifyjmj
0007d2ac T _ZN4CASGC1ER10epicsGuardI10epicsMutexER17ca_client_context
0007d124 T _ZN4CASGC2ER10epicsGuardI10epicsMutexER17ca_client_context
0007cee8 T _ZN4CASGD0Ev
0007cfb4 T _ZN4CASGD1Ev
0007d06c T _ZN4CASGD2Ev
0007cde0 T _ZN4CASGdlEPv
0007e92c T _ZN4CASGnwEj
00088ff8 T _ZN4nciu11resubscribeER10epicsGuardI10epicsMutexE
00087f4c T _ZN4nciu12stringVerifyEPKcj
0008803c T _ZN4nciu15disconnectAllIOER10epicsGuardI10epicsMutexES3_
00088208 T _ZN4nciu15initiateConnectER10epicsGuardI10epicsMutexE
00087eb0 T _ZN4nciu18ioCompletionNotifyER10epicsGuardI10epicsMutexER8baseNMIU
000898a0 T _ZN4nciu21serviceShutdownNotifyER10epicsGuardI10epicsMutexES3_
00089758 T _ZN4nciu23accessRightsStateChangeERK14caAccessRightsR10epicsGuardI10epicsMutexES6_
00089800 T _ZN4nciu23setServerAddressUnknownER6netiiuR10epicsGuardI10epicsMutexE
00089904 T _ZN4nciu25unresponsiveCircuitNotifyER10epicsGuardI10epicsMutexES3_
00087d40 T _ZN4nciu26requestMessageBytesPendingER10epicsGuardI10epicsMutexE
00088ed4 T _ZN4nciu30sendSubscriptionUpdateRequestsER10epicsGuardI10epicsMutexE
0008942c T _ZN4nciu4readER10epicsGuardI10epicsMutexEjmR13cacReadNotifyPj
00087d70 T _ZN4nciu5flushER10epicsGuardI10epicsMutexE
0008929c T _ZN4nciu5writeER10epicsGuardI10epicsMutexEjmPKv
000888bc T _ZN4nciu5writeER10epicsGuardI10epicsMutexEjmPKvR14cacWriteNotifyPj
00089dac T _ZN4nciu7connectEjjjR10epicsGuardI10epicsMutexES3_
00088240 T _ZN4nciu7destroyER10epicsGuardI10epicsMutexE
0008811c T _ZN4nciu8ioCancelER10epicsGuardI10epicsMutexERKj
00088384 T _ZN4nciu9searchMsgER10epicsGuardI10epicsMutexE
000887e4 T _ZN4nciu9subscribeER10epicsGuardI10epicsMutexEjmjR14cacStateNotifyPj
00088cf0 T _ZN4nciuC1ER3cacR6netiiuR16cacChannelNotifyPKcj
000883e8 T _ZN4nciuC2ER3cacR6netiiuR16cacChannelNotifyPKcj
00088c60 T _ZN4nciuD0Ev
00088b68 T _ZN4nciuD1Ev
00088be4 T _ZN4nciuD2Ev
00088074 T _ZN4nciudlEPv
0008a068 T _ZN4nciunwEj
00000000 W _ZN5intIdIjLj8ELj32EEC2ERKj
000c7b40 T _ZN5timer12privateStartER16epicsTimerNotifyRK9epicsTime
000c7f5c T _ZN5timer5startER16epicsTimerNotifyRK9epicsTime
000c7a98 T _ZN5timer5startER16epicsTimerNotifyd
000c82fc T _ZN5timer6cancelEv
000c7f00 T _ZN5timer7destroyEv
000c7e68 T _ZN5timerC1ER10timerQueue
000c7dd0 T _ZN5timerC2ER10timerQueue
000c85a0 T _ZN5timerD0Ev
000c8640 T _ZN5timerD1Ev
000c86cc T _ZN5timerD2Ev
000c7a54 T _ZN5timerdlEPv
000c8758 T _ZN5timernwEj
000a1188 T _ZN6comBuf11flushToWireER15wireSendAdapterRK9epicsTime
000a12f4 T _ZN6comBuf30throwInsufficentBytesExceptionEv
00000000 W _ZN6comBuf3popIhEENS_9popStatusERT_
00000000 W _ZN6comBuf3popIjEENS_9popStatusERT_
00000000 W _ZN6comBuf3popItEENS_9popStatusERT_
00000000 W _ZN6comBuf4pushIdEEjPKT_j
00000000 W _ZN6comBuf4pushIfEEjPKT_j
00000000 W _ZN6comBuf4pushIiEEjPKT_j
00000000 W _ZN6comBuf4pushIsEEjPKT_j
000a12b0 T _ZN6comBufdlEPv
000a684c T _ZN6netiiu12flushRequestER10epicsGuardI10epicsMutexE
000a6930 T _ZN6netiiu12writeRequestER10epicsGuardI10epicsMutexER4nciujmPKv
000a687c T _ZN6netiiu13uninstallChanER10epicsGuardI10epicsMutexER4nciu
000a68b8 T _ZN6netiiu17readNotifyRequestER10epicsGuardI10epicsMutexER4nciuR15netReadNotifyIOjm
000a68f4 T _ZN6netiiu18writeNotifyRequestER10epicsGuardI10epicsMutexER4nciuR16netWriteNotifyIOjmPKv
000a6824 T _ZN6netiiu19clearChannelRequestER10epicsGuardI10epicsMutexEjj
000a6828 T _ZN6netiiu19subscriptionRequestER10epicsGuardI10epicsMutexER4nciuR15netSubscription
000a682c T _ZN6netiiu25subscriptionCancelRequestER10epicsGuardI10epicsMutexER4nciuR15netSubscription
000a6830 T _ZN6netiiu25subscriptionUpdateRequestER10epicsGuardI10epicsMutexER4nciuR15netSubscription
000a6850 T _ZN6netiiu26requestMessageBytesPendingER10epicsGuardI10epicsMutexE
000a685c T _ZN6netiiu32requestRecvProcessPostponedFlushER10epicsGuardI10epicsMutexE
000a6a8c T _ZN6netiiu42uninstallChanDueToSuccessfulSearchResponseER10epicsGuardI10epicsMutexER4nciuRK9epicsTime
000a6858 T _ZN6netiiu5flushER10epicsGuardI10epicsMutexE
000a6874 T _ZN6netiiu9searchMsgER10epicsGuardI10epicsMutexEjPKcj
000a696c T _ZN6netiiuD0Ev
000a69a4 T _ZN6netiiuD1Ev
000a69b4 T _ZN6netiiuD2Ev
00091b40 T _ZN6tcpiiu11echoRequestER10epicsGuardI10epicsMutexE
0008f378 T _ZN6tcpiiu12channelCountER10epicsGuardI10epicsMutexE
0008faa0 T _ZN6tcpiiu12flushRequestER10epicsGuardI10epicsMutexE
000919e4 T _ZN6tcpiiu12writeRequestER10epicsGuardI10epicsMutexER4nciujmPKv
00093e3c T _ZN6tcpiiu13connectNotifyER10epicsGuardI10epicsMutexER4nciu
00093654 T _ZN6tcpiiu13printFormatedER10epicsGuardI10epicsMutexEPKcz
00093c10 T _ZN6tcpiiu13uninstallChanER10epicsGuardI10epicsMutexER4nciu
000948b0 T _ZN6tcpiiu14installChannelER10epicsGuardI10epicsMutexER4nciujtm
00091c8c T _ZN6tcpiiu14versionMessageER10epicsGuardI10epicsMutexERKj
00093760 T _ZN6tcpiiu15processIncomingERK9epicsTimeR15callbackManager
00095f40 T _ZN6tcpiiu15sendThreadFlushER10epicsGuardI10epicsMutexE
00092a60 T _ZN6tcpiiu16disconnectNotifyER10epicsGuardI10epicsMutexE
0008fbdc T _ZN6tcpiiu16searchRespNotifyERK9epicsTimeRK15caHdrLargeArray
00091668 T _ZN6tcpiiu17readNotifyRequestER10epicsGuardI10epicsMutexER4nciuR15netReadNotifyIOjm
00092764 T _ZN6tcpiiu17sendTimeoutNotifyER15callbackManagerR10epicsGuardI10epicsMutexE
000949c4 T _ZN6tcpiiu17unlinkAllChannelsER10epicsGuardI10epicsMutexES3_
0008f334 T _ZN6tcpiiu17versionRespNotifyERK15caHdrLargeArray
00097360 T _ZN6tcpiiu18hostNameSetRequestER10epicsGuardI10epicsMutexE
00096f08 T _ZN6tcpiiu18userNameSetRequestER10epicsGuardI10epicsMutexE
00091838 T _ZN6tcpiiu18writeNotifyRequestER10epicsGuardI10epicsMutexER4nciuR16netWriteNotifyIOjmPKv
00091530 T _ZN6tcpiiu19clearChannelRequestER10epicsGuardI10epicsMutexEjj
00090efc T _ZN6tcpiiu19subscriptionRequestER10epicsGuardI10epicsMutexER4nciuR15netSubscription
000961c8 T _ZN6tcpiiu20createChannelRequestER4nciuR10epicsGuardI10epicsMutexE
0009268c T _ZN6tcpiiu20receiveTimeoutNotifyER15callbackManagerR10epicsGuardI10epicsMutexE
00095170 T _ZN6tcpiiu21disconnectAllChannelsER10epicsGuardI10epicsMutexES3_R6udpiiu
00092108 T _ZN6tcpiiu21initiateAbortShutdownER10epicsGuardI10epicsMutexE
000931f8 T _ZN6tcpiiu21initiateCleanShutdownER10epicsGuardI10epicsMutexE
00092078 T _ZN6tcpiiu21setEchoRequestPendingER10epicsGuardI10epicsMutexE
00092858 T _ZN6tcpiiu23responsiveCircuitNotifyER10epicsGuardI10epicsMutexES3_
00091e18 T _ZN6tcpiiu24enableFlowControlRequestER10epicsGuardI10epicsMutexE
00091f48 T _ZN6tcpiiu25disableFlowControlRequestER10epicsGuardI10epicsMutexE
00090b74 T _ZN6tcpiiu25subscriptionCancelRequestER10epicsGuardI10epicsMutexER4nciuR15netSubscription
00090d0c T _ZN6tcpiiu25subscriptionUpdateRequestER10epicsGuardI10epicsMutexER4nciuR15netSubscription
00092344 T _ZN6tcpiiu25unresponsiveCircuitNotifyER10epicsGuardI10epicsMutexES3_
00095ed8 T _ZN6tcpiiu26requestMessageBytesPendingER10epicsGuardI10epicsMutexE
0008f280 T _ZN6tcpiiu27flushIfRecvProcessRequestedER10epicsGuardI10epicsMutexE
00095bf0 T _ZN6tcpiiu30decrementBlockingForFlushCountER10epicsGuardI10epicsMutexE
00095a7c T _ZN6tcpiiu32requestRecvProcessPostponedFlushER10epicsGuardI10epicsMutexE
0008f40c T _ZN6tcpiiu42uninstallChanDueToSuccessfulSearchResponseER10epicsGuardI10epicsMutexER4nciuRK9epicsTime
00095cb8 T _ZN6tcpiiu5flushER10epicsGuardI10epicsMutexE
00093324 T _ZN6tcpiiu5startER10epicsGuardI10epicsMutexE
00092bd8 T _ZN6tcpiiu9recvBytesEPvjR12statusWireIO
0008f3e0 T _ZN6tcpiiu9searchMsgER10epicsGuardI10epicsMutexEjPKcj
00092f2c T _ZN6tcpiiu9sendBytesEPKvjRK9epicsTime
000977c4 T _ZN6tcpiiuC1ER3cacR10epicsMutexS3_R16cacContextNotifydR15epicsTimerQueueRK11osiSockAddrR19comBufMemoryManagerjR19ipAddrToAsciiEngineRKjP13SearchDestTCP
00098734 T _ZN6tcpiiuC2ER3cacR10epicsMutexS3_R16cacContextNotifydR15epicsTimerQueueRK11osiSockAddrR19comBufMemoryManagerjR19ipAddrToAsciiEngineRKjP13SearchDestTCP
000900f8 T _ZN6tcpiiuD0Ev
00090484 T _ZN6tcpiiuD1Ev
000907fc T _ZN6tcpiiuD2Ev
0008f438 T _ZN6tcpiiudlEPv
0008c2dc T _ZN6udpiiu10updateRTTEER10epicsGuardI10epicsMutexEd
0008af6c T _ZN6udpiiu12beaconActionERK6ca_hdrRK11osiSockAddrRK9epicsTime
0008b7ac T _ZN6udpiiu12boostChannelER10epicsGuardI10epicsMutexER4nciu
0008a4c8 T _ZN6udpiiu12flushRequestER10epicsGuardI10epicsMutexE
0008a5fc T _ZN6udpiiu12writeRequestER10epicsGuardI10epicsMutexER4nciujmPKv
0008c514 T _ZN6udpiiu13SearchDestUDP13searchRequestER10epicsGuardI10epicsMutexEPKcj
0008a37c T _ZN6udpiiu13SearchDestUDPC1ERK11osiSockAddrRS_
0008a33c T _ZN6udpiiu13SearchDestUDPC2ERK11osiSockAddrRS_
00000000 W _ZN6udpiiu13SearchDestUDPD0Ev
00000000 W _ZN6udpiiu13SearchDestUDPD1Ev
0008c9f4 T _ZN6udpiiu13datagramFlushER10epicsGuardI10epicsMutexERK9epicsTime
0008a6d8 T _ZN6udpiiu13printFormatedER10epicsGuardI10epicsMutexEPKcz
0008b904 T _ZN6udpiiu13uninstallChanER10epicsGuardI10epicsMutexER4nciu
0008be1c T _ZN6udpiiu13versionActionERK6ca_hdrRK11osiSockAddrRK9epicsTime
0008c908 T _ZN6udpiiu14pushVersionMsgEv
0008b740 T _ZN6udpiiu15govExpireNotifyER10epicsGuardI10epicsMutexER4nciu
0008c71c T _ZN6udpiiu15pushDatagramMsgER10epicsGuardI10epicsMutexERK6ca_hdrPKvt
00003fc4 R _ZN6udpiiu15udpJumpTableCACE
0008ad40 T _ZN6udpiiu16badUDPRespActionERK6ca_hdrRK11osiSockAddrRK9epicsTime
0008a9ec T _ZN6udpiiu16searchRespActionERK6ca_hdrRK11osiSockAddrRK9epicsTime
0008b894 T _ZN6udpiiu17installNewChannelER10epicsGuardI10epicsMutexER4nciuRP6netiiu
0008a334 T _ZN6udpiiu17notHereRespActionERK6ca_hdrRK11osiSockAddrRK9epicsTime
0008a5a4 T _ZN6udpiiu17readNotifyRequestER10epicsGuardI10epicsMutexER4nciuR15netReadNotifyIOjm
0008af34 T _ZN6udpiiu17repeaterAckActionERK6ca_hdrRK11osiSockAddrRK9epicsTime
0008a8a8 T _ZN6udpiiu18SearchRespCallback6notifyERK6ca_hdrPKvRK11osiSockAddrRK9epicsTime
0008bb80 T _ZN6udpiiu18SearchRespCallbackC1ERS_
0008a3bc T _ZN6udpiiu18SearchRespCallbackC2ERS_
00000000 W _ZN6udpiiu18SearchRespCallbackD0Ev
00000000 W _ZN6udpiiu18SearchRespCallbackD1Ev
0008b818 T _ZN6udpiiu18noSearchRespNotifyER10epicsGuardI10epicsMutexER4nciuj
0008a5d0 T _ZN6udpiiu18writeNotifyRequestER10epicsGuardI10epicsMutexER4nciuR16netWriteNotifyIOjmPKv
0008bab4 T _ZN6udpiiu19beaconAnomalyNotifyER10epicsGuardI10epicsMutexE
0008a578 T _ZN6udpiiu19clearChannelRequestER10epicsGuardI10epicsMutexEjj
0008adf8 T _ZN6udpiiu19exceptionRespActionERK6ca_hdrRK11osiSockAddrRK9epicsTime
0008a54c T _ZN6udpiiu19subscriptionRequestER10epicsGuardI10epicsMutexER4nciuR15netSubscription
0008a4f4 T _ZN6udpiiu25subscriptionCancelRequestER10epicsGuardI10epicsMutexER4nciuR15netSubscription
0008a520 T _ZN6udpiiu25subscriptionUpdateRequestER10epicsGuardI10epicsMutexER4nciuR15netSubscription
0008a79c T _ZN6udpiiu26installDisconnectedChannelER10epicsGuardI10epicsMutexER4nciu
0008a49c T _ZN6udpiiu26requestMessageBytesPendingER10epicsGuardI10epicsMutexE
0008bea4 T _ZN6udpiiu27repeaterRegistrationMessageEj
0008a444 T _ZN6udpiiu32requestRecvProcessPostponedFlushER10epicsGuardI10epicsMutexE
0008b9d0 T _ZN6udpiiu42uninstallChanDueToSuccessfulSearchResponseER10epicsGuardI10epicsMutexER4nciuRK9epicsTime
0008a470 T _ZN6udpiiu5flushER10epicsGuardI10epicsMutexE
0008ab2c T _ZN6udpiiu7postMsgERK11osiSockAddrPcmRK9epicsTime
0008bf54 T _ZN6udpiiu8shutdownER10epicsGuardI10epicsMutexES3_
0008c8b0 T _ZN6udpiiu9searchMsgER10epicsGuardI10epicsMutexEjPKcj
0008a818 T _ZN6udpiiu9wakeupMsgEv
0008e200 T _ZN6udpiiuC1ER10epicsGuardI10epicsMutexER21epicsTimerQueueActiveRS1_S6_R16cacContextNotifyR3cacjR8tsDLListI10SearchDestE
0008d19c T _ZN6udpiiuC2ER10epicsGuardI10epicsMutexER21epicsTimerQueueActiveRS1_S6_R16cacContextNotifyR3cacjR8tsDLListI10SearchDestE
0008eed8 T _ZN6udpiiuD0Ev
0008ce10 T _ZN6udpiiuD1Ev
0008de74 T _ZN6udpiiuD2Ev
0007bdc0 T _ZN7getCopy10completionER10epicsGuardI10epicsMutexEjmPKv
0007c0e0 T _ZN7getCopy6cancelEv
0007bcec T _ZN7getCopy9exceptionER10epicsGuardI10epicsMutexEiPKcjm
0007bfa0 T _ZN7getCopyC1ER10epicsGuardI10epicsMutexER17ca_client_contextR16oldChannelNotifyjmPv
0007c040 T _ZN7getCopyC2ER10epicsGuardI10epicsMutexER17ca_client_contextR16oldChannelNotifyjmPv
0007bed8 T _ZN7getCopyD0Ev
0007bf30 T _ZN7getCopyD1Ev
0007bf68 T _ZN7getCopyD2Ev
0007bbe4 T _ZN7getCopydlEPv
0007c18c T _ZN7getCopynwEj
00099ae0 T _ZN7noopiiu12flushRequestER10epicsGuardI10epicsMutexE
00099c14 T _ZN7noopiiu12writeRequestER10epicsGuardI10epicsMutexER4nciujmPKv
00099998 T _ZN7noopiiu13uninstallChanER10epicsGuardI10epicsMutexER4nciu
00099bbc T _ZN7noopiiu17readNotifyRequestER10epicsGuardI10epicsMutexER4nciuR15netReadNotifyIOjm
00099be8 T _ZN7noopiiu18writeNotifyRequestER10epicsGuardI10epicsMutexER4nciuR16netWriteNotifyIOjmPKv
00099b90 T _ZN7noopiiu19clearChannelRequestER10epicsGuardI10epicsMutexEjj
00099b64 T _ZN7noopiiu19subscriptionRequestER10epicsGuardI10epicsMutexER4nciuR15netSubscription
00099b0c T _ZN7noopiiu25subscriptionCancelRequestER10epicsGuardI10epicsMutexER4nciuR15netSubscription
00099b38 T _ZN7noopiiu25subscriptionUpdateRequestER10epicsGuardI10epicsMutexER4nciuR15netSubscription
00099ab4 T _ZN7noopiiu26requestMessageBytesPendingER10epicsGuardI10epicsMutexE
00099a5c T _ZN7noopiiu32requestRecvProcessPostponedFlushER10epicsGuardI10epicsMutexE
000999c8 T _ZN7noopiiu42uninstallChanDueToSuccessfulSearchResponseER10epicsGuardI10epicsMutexER4nciuRK9epicsTime
00099a88 T _ZN7noopiiu5flushER10epicsGuardI10epicsMutexE
0009999c T _ZN7noopiiu9searchMsgER10epicsGuardI10epicsMutexEjPKcj
00099cf0 T _ZN7noopiiuD0Ev
00099d48 T _ZN7noopiiuD1Ev
00099e78 T _ZN7noopiiuD2Ev
00087ce4 T _ZN8baseNMIU23forceSubscriptionUpdateER10epicsGuardI10epicsMutexER4nciu
00087ce8 T _ZN8baseNMIUD0Ev
00087d20 T _ZN8baseNMIUD1Ev
00087d30 T _ZN8baseNMIUD2Ev
000554d4 T _ZN8dbBaseIOC1Ev
00055e0c T _ZN8dbBaseIOC2Ev
00000000 W _ZN8dbBaseIOD0Ev
00000000 W _ZN8dbBaseIOD1Ev
00000000 W _ZN8resTableI3bhe10inetAddrIDE11splitBucketEv
00000000 W _ZN8resTableI3bhe10inetAddrIDE19setTableSizePrivateEj
00000000 W _ZN8resTableI3bhe10inetAddrIDE3addERS0_
00000000 W _ZN8resTableI3bhe10inetAddrIDE9removeAllER8tsSLListIS0_E
00000000 W _ZN8resTableI3bhe10inetAddrIDED0Ev
00000000 W _ZN8resTableI3bhe10inetAddrIDED1Ev
00000000 W _ZN8resTableI4CASG10chronIntIdE11splitBucketEv
00000000 W _ZN8resTableI4CASG10chronIntIdE19setTableSizePrivateEj
00000000 W _ZN8resTableI4CASG10chronIntIdE3addERS0_
00000000 W _ZN8resTableI4CASG10chronIntIdE6removeERKS1_
00000000 W _ZN8resTableI4CASG10chronIntIdED0Ev
00000000 W _ZN8resTableI4CASG10chronIntIdED1Ev
00000000 W _ZN8resTableI4CASG10chronIntIdED2Ev
00000000 W _ZN8resTableI4nciu10chronIntIdE11splitBucketEv
00000000 W _ZN8resTableI4nciu10chronIntIdE19setTableSizePrivateEj
00000000 W _ZN8resTableI4nciu10chronIntIdE3addERS0_
00000000 W _ZN8resTableI4nciu10chronIntIdE6removeERKS1_
00000000 W _ZN8resTableI4nciu10chronIntIdED0Ev
00000000 W _ZN8resTableI4nciu10chronIntIdED1Ev
00000000 W _ZN8resTableI4nciu10chronIntIdED2Ev
00000000 W _ZN8resTableI6tcpiiu10caServerIDE11splitBucketEv
00000000 W _ZN8resTableI6tcpiiu10caServerIDE19setTableSizePrivateEj
00000000 W _ZN8resTableI6tcpiiu10caServerIDE3addERS0_
00000000 W _ZN8resTableI6tcpiiu10caServerIDE6removeERKS1_
00000000 W _ZN8resTableI6tcpiiu10caServerIDED0Ev
00000000 W _ZN8resTableI6tcpiiu10caServerIDED1Ev
00000000 W _ZN8resTableI8baseNMIU10chronIntIdE11splitBucketEv
00000000 W _ZN8resTableI8baseNMIU10chronIntIdE19setTableSizePrivateEj
00000000 W _ZN8resTableI8baseNMIU10chronIntIdE3addERS0_
00000000 W _ZN8resTableI8baseNMIU10chronIntIdE6removeERKS1_
00000000 W _ZN8resTableI8baseNMIU10chronIntIdED0Ev
00000000 W _ZN8resTableI8baseNMIU10chronIntIdED1Ev
00000000 W _ZN8resTableI8baseNMIU10chronIntIdED2Ev
00000000 W _ZN8resTableI8dbBaseIO10chronIntIdE11splitBucketEv
00000000 W _ZN8resTableI8dbBaseIO10chronIntIdE19setTableSizePrivateEj
00000000 W _ZN8resTableI8dbBaseIO10chronIntIdE3addERS0_
00000000 W _ZN8resTableI8dbBaseIO10chronIntIdE6removeERKS1_
00000000 W _ZN8resTableI8dbBaseIO10chronIntIdED0Ev
00000000 W _ZN8resTableI8dbBaseIO10chronIntIdED1Ev
00000000 W _ZN8resTableI8dbBaseIO10chronIntIdED2Ev
00056fb0 T _ZN9dbContext12destroyAllIOER10epicsGuardI10epicsMutexER11dbChannelIO
000561d0 T _ZN9dbContext13createChannelER10epicsGuardI10epicsMutexEPKcR16cacChannelNotifyj
00056858 T _ZN9dbContext14destroyChannelER10epicsGuardI10epicsMutexER11dbChannelIO
00055b64 T _ZN9dbContext15callStateNotifyER6dbAddrjmPK12db_field_logR14cacStateNotify
00055e74 T _ZN9dbContext17initiatePutNotifyER10epicsGuardI10epicsMutexER11dbChannelIOR6dbAddrjmPKvR14cacWriteNotifyPj
00056a9c T _ZN9dbContext5flushER10epicsGuardI10epicsMutexE
00056d84 T _ZN9dbContext8ioCancelER10epicsGuardI10epicsMutexER11dbChannelIORKj
00056498 T _ZN9dbContext9subscribeER10epicsGuardI10epicsMutexER6dbAddrR11dbChannelIOjmjR14cacStateNotifyPj
00055598 T _ZN9dbContextC1ER10epicsMutexS1_R16cacContextNotify
000557d0 T _ZN9dbContextC2ER10epicsMutexS1_R16cacContextNotify
0005729c T _ZN9dbContextD0Ev
00057488 T _ZN9dbContextD1Ev
00057660 T _ZN9dbContextD2Ev
00055724 T _ZN9dbService13contextCreateER10epicsMutexS1_R16cacContextNotify
00000000 W _ZN9dbServiceD0Ev
00000000 W _ZN9dbServiceD1Ev
000beab0 T _ZN9epicsTime10getCurrentEv
000be9fc T _ZN9epicsTime8getEventERK14epicsTimeEvent
000be190 T _ZN9epicsTimeC1ERK14epicsTimeStamp
000bd590 T _ZN9epicsTimeC1ERK14time_t_wrapper
000bde08 T _ZN9epicsTimeC1ERK17local_tm_nano_sec
000bd024 T _ZN9epicsTimeC1ERK4l_fp
000be0c8 T _ZN9epicsTimeC1ERK7timeval
000be004 T _ZN9epicsTimeC1ERK8timespec
000bcf88 T _ZN9epicsTimeC1ERKS_
000bcf64 T _ZN9epicsTimeC1Ev
000beb60 T _ZN9epicsTimeC2ERK14epicsTimeStamp
000bd8ec T _ZN9epicsTimeC2ERK14time_t_wrapper
000bd7b8 T _ZN9epicsTimeC2ERK17local_tm_nano_sec
000bcfe0 T _ZN9epicsTimeC2ERK4l_fp
000bdf3c T _ZN9epicsTimeC2ERK7timeval
000bdd44 T _ZN9epicsTimeC2ERK8timespec
000bcf74 T _ZN9epicsTimeC2ERKS_
000bcf54 T _ZN9epicsTimeC2Ev
0006fb60 T _ZNK10cacChannel11getHostNameER10epicsGuardI10epicsMutexEPcj
0006fa10 T _ZNK10cacChannel12accessRightsER10epicsGuardI10epicsMutexE
0006f7b4 T _ZNK10cacChannel12beaconPeriodER10epicsGuardI10epicsMutexE
0006f7ac T _ZNK10cacChannel14searchAttemptsER10epicsGuardI10epicsMutexE
0006f7c8 T _ZNK10cacChannel20receiveWatchdogDelayER10epicsGuardI10epicsMutexE
0006f7dc T _ZNK10cacChannel9ca_v42_okER10epicsGuardI10epicsMutexE
0006f7e4 T _ZNK10cacChannel9connectedER10epicsGuardI10epicsMutexE
0006f8f4 T _ZNK10cacChannel9pHostNameER10epicsGuardI10epicsMutexE
000bcbcc T _ZNK10epicsEvent16invalidSemaphore4whatEv
000bcbd8 T _ZNK10epicsEvent4showEj
000bbde4 T _ZNK10epicsMutex12invalidMutex4whatEv
000bbdd8 T _ZNK10epicsMutex17mutexCreateFailed4whatEv
000bc198 T _ZNK10epicsMutex4showEj
000ccd0c T _ZNK10timerQueue4showEj
000582d4 T _ZNK11dbChannelIO10nativeTypeER10epicsGuardI10epicsMutexE
000583c4 T _ZNK11dbChannelIO18nativeElementCountER10epicsGuardI10epicsMutexE
00058428 T _ZNK11dbChannelIO4showER10epicsGuardI10epicsMutexEj
00058338 T _ZNK11dbChannelIO5pNameER10epicsGuardI10epicsMutexE
00058570 T _ZNK11dbChannelIO6ioShowER10epicsGuardI10epicsMutexERKjj
000578f8 T _ZNK11dbChannelIO7getNameER10epicsGuardI10epicsMutexEPcj
000babf8 T _ZNK11epicsThread11getPriorityEv
000baacc T _ZNK11epicsThread11isSuspendedEv
000ba8e8 T _ZNK11epicsThread15isCurrentThreadEv
000bab34 T _ZNK11epicsThread15priorityIsEqualERKS_
000ba3a0 T _ZNK11epicsThread20unableToCreateThread4whatEv
000ba680 T _ZNK11epicsThread4showEj
000ba3ac T _ZNK11epicsThread5getIdEv
000bac50 T _ZNK11epicsThread7getNameEPcj
000ba3b4 T _ZNK11epicsThreadeqERKS_
000a47b8 T _ZNK11searchTimer4showEj
000a46f0 T _ZNK11searchTimer6periodER10epicsGuardI10epicsMutexE
0008f340 T _ZNK13SearchDestTCP4showER10epicsGuardI10epicsMutexEj
000a1908 T _ZNK13hostNameCache7getNameEPcj
000807f0 T _ZNK13localHostName7getNameEPcj
0008f27c T _ZNK13tcpRecvThread4showEj
0008f278 T _ZNK13tcpSendThread4showEj
0008a330 T _ZNK13udpRecvThread4showEj
00000000 W _ZNK14epicsSingletonI19timerQueueActiveMgrE12getReferenceEv
00000000 W _ZNK14epicsSingletonI19timerQueueActiveMgrE9referencedeEv
00000000 W _ZNK14epicsSingletonI19timerQueueActiveMgrE9referenceptEv
00000000 W _ZNK14epics_auto_ptrIS_I11searchTimerL19epics_auto_ptr_type0EELS1_1EEixEj
00099eb0 T _ZNK15netReadNotifyIO4showER10epicsGuardI10epicsMutexEj
0009a334 T _ZNK15netReadNotifyIO4showEj
0009b368 T _ZNK15netSubscription4showER10epicsGuardI10epicsMutexEj
0009b824 T _ZNK15netSubscription4showEj
0009cbf8 T _ZNK15tcpRecvWatchdog4showEj
0009c780 T _ZNK15tcpRecvWatchdog5delayEv
00059860 T _ZNK16dbSubscriptionIO4showER10epicsGuardI10epicsMutexEj
000591d8 T _ZNK16dbSubscriptionIO4showEj
000c6eb0 T _ZNK16epicsTimerNotify12expireStatus15expirationDelayEv
000c6244 T _ZNK16epicsTimerNotify12expireStatus7restartEv
000c5c20 T _ZNK16epicsTimerNotify4showEj
0009a8ec T _ZNK16netWriteNotifyIO4showER10epicsGuardI10epicsMutexEj
0009ad40 T _ZNK16netWriteNotifyIO4showEj
000c8fa0 T _ZNK16timerQueueActive4showEj
0007492c T _ZNK17ca_client_context12circuitCountEv
00073e54 T _ZNK17ca_client_context13printFormatedEPKcz
00073d78 T _ZNK17ca_client_context20varArgsPrintFormatedEPKcP13__va_list_tag
00074888 T _ZNK17ca_client_context32beaconAnomaliesSinceProgramStartEv
00074430 T _ZNK17ca_client_context4showEj
00073b30 T _ZNK17ca_client_context8mutexRefEv
000747d8 T _ZNK17ca_client_context8selfTestEv
000cacc0 T _ZNK17timerQueuePassive4showEj
00059f40 T _ZNK18dbPutNotifyBlocker4showER10epicsGuardI10epicsMutexEj
0005a08c T _ZNK18dbPutNotifyBlocker4showEj
000ba39c T _ZNK18epicsThreadRunable4showEj
0007eec0 T _ZNK19syncGroupReadNotify4showER10epicsGuardI10epicsMutexEj
0007fc10 T _ZNK20syncGroupWriteNotify4showER10epicsGuardI10epicsMutexEj
000b7988 T _ZNK21ipAddrToAsciiCallBack4showEj
000a6120 T _ZNK22repeaterSubscribeTimer4showEj
000a5b04 T _ZNK23disconnectGovernorTimer4showEj
0005b500 T _ZNK24dbContextReadNotifyCache4showER10epicsGuardI10epicsMutexEj
000bc1c8 T _ZNK24epicsDeadlockDetectMutex4showEj
000b84c4 T _ZNK26ipAddrToAsciiEnginePrivate4showEj
000b7f50 T _ZNK31ipAddrToAsciiTransactionPrivate4showEj
000b798c T _ZNK31ipAddrToAsciiTransactionPrivate7addressEv
0005afe4 T _ZNK33dbContextReadNotifyCacheAllocator4showEj
0009e0b4 T _ZNK3bhe10updateTimeER10epicsGuardI10epicsMutexE
0009d894 T _ZNK3bhe4showER10epicsGuardI10epicsMutexEj
0009daf4 T _ZNK3bhe4showEj
0009dba0 T _ZNK3bhe6periodER10epicsGuardI10epicsMutexE
00083f84 T _ZNK3cac12beaconPeriodER10epicsGuardI10epicsMutexERK4nciu
00081ee0 T _ZNK3cac12circuitCountER10epicsGuardI10epicsMutexE
00081fdc T _ZNK3cac13printFormatedER10epicsGuardI10epicsMutexEPKcz
00000000 W _ZNK3cac32beaconAnomaliesSinceProgramStartER10epicsGuardI10epicsMutexE
00081c28 T _ZNK3cac4showER10epicsGuardI10epicsMutexEj
00082e14 T _ZNK3cac6ioShowER10epicsGuardI10epicsMutexERKjj
0008215c T _ZNK3cac8selfTestER10epicsGuardI10epicsMutexE
0007dcc0 T _ZNK4CASG4showER10epicsGuardI10epicsMutexEj
0007de88 T _ZNK4CASG4showEj
0007cdc4 T _ZNK4CASG6verifyER10epicsGuardI10epicsMutexE
00087dd0 T _ZNK4nciu10nativeTypeER10epicsGuardI10epicsMutexE
0008800c T _ZNK4nciu11getHostNameER10epicsGuardI10epicsMutexEPcj
00089230 T _ZNK4nciu12accessRightsER10epicsGuardI10epicsMutexE
000880b8 T _ZNK4nciu12beaconPeriodER10epicsGuardI10epicsMutexE
000891c4 T _ZNK4nciu14searchAttemptsER10epicsGuardI10epicsMutexE
00087e38 T _ZNK4nciu18nativeElementCountER10epicsGuardI10epicsMutexE
00087e80 T _ZNK4nciu20receiveWatchdogDelayER10epicsGuardI10epicsMutexE
000885cc T _ZNK4nciu4showER10epicsGuardI10epicsMutexEj
00088ab8 T _ZNK4nciu4showEj
000896c4 T _ZNK4nciu5pNameER10epicsGuardI10epicsMutexE
000880ec T _ZNK4nciu6ioShowER10epicsGuardI10epicsMutexERKjj
00088150 T _ZNK4nciu7getNameER10epicsGuardI10epicsMutexEPcj
00089658 T _ZNK4nciu7nameLenER10epicsGuardI10epicsMutexE
00087da0 T _ZNK4nciu9ca_v42_okER10epicsGuardI10epicsMutexE
0008913c T _ZNK4nciu9connectedER10epicsGuardI10epicsMutexE
00087fdc T _ZNK4nciu9pHostNameER10epicsGuardI10epicsMutexE
000c8204 T _ZNK5timer13getExpireInfoEv
000c801c T _ZNK5timer4showEj
000a69c4 T _ZNK6netiiu11getHostNameER10epicsGuardI10epicsMutexEPcj
000a6840 T _ZNK6netiiu17getNetworkAddressER10epicsGuardI10epicsMutexE
000a6860 T _ZNK6netiiu20receiveWatchdogDelayER10epicsGuardI10epicsMutexE
000a681c T _ZNK6netiiu9ca_v41_okER10epicsGuardI10epicsMutexE
000a6814 T _ZNK6netiiu9ca_v42_okER10epicsGuardI10epicsMutexE
000a6834 T _ZNK6netiiu9pHostNameER10epicsGuardI10epicsMutexE
000959bc T _ZNK6tcpiiu11getHostNameER10epicsGuardI10epicsMutexEPcj
00095b5c T _ZNK6tcpiiu17getNetworkAddressER10epicsGuardI10epicsMutexE
0008f53c T _ZNK6tcpiiu19bytesArePendingInOSEv
0008f50c T _ZNK6tcpiiu20receiveWatchdogDelayER10epicsGuardI10epicsMutexE
0008fc84 T _ZNK6tcpiiu4showEj
00000000 W _ZNK6tcpiiu9ca_v41_okER10epicsGuardI10epicsMutexE
00095ae8 T _ZNK6tcpiiu9ca_v42_okER10epicsGuardI10epicsMutexE
0009592c T _ZNK6tcpiiu9pHostNameER10epicsGuardI10epicsMutexE
0008a6ac T _ZNK6udpiiu11getHostNameER10epicsGuardI10epicsMutexEPcj
0008c460 T _ZNK6udpiiu13SearchDestUDP4showER10epicsGuardI10epicsMutexEj
0008a3d0 T _ZNK6udpiiu17datagramSeqNumberER10epicsGuardI10epicsMutexE
0008a408 T _ZNK6udpiiu17getNetworkAddressER10epicsGuardI10epicsMutexE
0008c3e4 T _ZNK6udpiiu18SearchRespCallback4showER10epicsGuardI10epicsMutexEj
0008a3dc T _ZNK6udpiiu20receiveWatchdogDelayER10epicsGuardI10epicsMutexE
0008bb94 T _ZNK6udpiiu4showEj
0008c238 T _ZNK6udpiiu7getRTTEER10epicsGuardI10epicsMutexE
0008a628 T _ZNK6udpiiu9ca_v41_okER10epicsGuardI10epicsMutexE
0008a654 T _ZNK6udpiiu9ca_v42_okER10epicsGuardI10epicsMutexE
0008a680 T _ZNK6udpiiu9pHostNameER10epicsGuardI10epicsMutexE
0007bc28 T _ZNK7getCopy4showEj
00099cc4 T _ZNK7noopiiu11getHostNameER10epicsGuardI10epicsMutexEPcj
00099a20 T _ZNK7noopiiu17getNetworkAddressER10epicsGuardI10epicsMutexE
000999f4 T _ZNK7noopiiu20receiveWatchdogDelayER10epicsGuardI10epicsMutexE
00099c40 T _ZNK7noopiiu9ca_v41_okER10epicsGuardI10epicsMutexE
00099c6c T _ZNK7noopiiu9ca_v42_okER10epicsGuardI10epicsMutexE
00099c98 T _ZNK7noopiiu9pHostNameER10epicsGuardI10epicsMutexE
00000000 W _ZNK8resTableI3bhe10inetAddrIDE4findER8tsSLListIS0_ERKS1_
00000000 W _ZNK8resTableI3bhe10inetAddrIDE4showEj
00000000 W _ZNK8resTableI3bhe10inetAddrIDE6verifyEv
00000000 W _ZNK8resTableI4CASG10chronIntIdE4findER8tsSLListIS0_ERKS1_
00000000 W _ZNK8resTableI4CASG10chronIntIdE4showEj
00000000 W _ZNK8resTableI4CASG10chronIntIdE6verifyEv
00000000 W _ZNK8resTableI4nciu10chronIntIdE4findER8tsSLListIS0_ERKS1_
00000000 W _ZNK8resTableI4nciu10chronIntIdE4showEj
00000000 W _ZNK8resTableI4nciu10chronIntIdE6verifyEv
00000000 W _ZNK8resTableI6tcpiiu10caServerIDE4findER8tsSLListIS0_ERKS1_
00000000 W _ZNK8resTableI6tcpiiu10caServerIDE4showEj
00000000 W _ZNK8resTableI8baseNMIU10chronIntIdE4findER8tsSLListIS0_ERKS1_
00000000 W _ZNK8resTableI8baseNMIU10chronIntIdE4showEj
00000000 W _ZNK8resTableI8baseNMIU10chronIntIdE6verifyEv
00000000 W _ZNK8resTableI8dbBaseIO10chronIntIdE4findER8tsSLListIS0_ERKS1_
00000000 W _ZNK8resTableI8dbBaseIO10chronIntIdE6verifyEv
00056a00 T _ZNK9dbContext12circuitCountER10epicsGuardI10epicsMutexE
00056134 T _ZNK9dbContext32beaconAnomaliesSinceProgramStartER10epicsGuardI10epicsMutexE
00056b2c T _ZNK9dbContext4showER10epicsGuardI10epicsMutexEj
00055990 T _ZNK9dbContext4showEj
00056c58 T _ZNK9dbContext6ioShowER10epicsGuardI10epicsMutexERKjj
0005695c T _ZNK9dbContext8selfTestER10epicsGuardI10epicsMutexE
00055a3c T _ZNK9dbContext9showAllIOERK11dbChannelIOj
000bfc4c T _ZNK9epicsTime4showEj
000bf728 T _ZNK9epicsTime8strftimeEPcjPKc
000bece0 T _ZNK9epicsTimecv14epicsTimeStampEv
000bf238 T _ZNK9epicsTimecv14gm_tm_nano_secEv
000bd378 T _ZNK9epicsTimecv14time_t_wrapperEv
000bf4b0 T _ZNK9epicsTimecv17local_tm_nano_secEv
000bcf9c T _ZNK9epicsTimecv4l_fpEv
000bd4e0 T _ZNK9epicsTimecv7timevalEv
000bd540 T _ZNK9epicsTimecv8timespecEv
000bd1d4 T _ZNK9epicsTimeleERKS_
000bd234 T _ZNK9epicsTimeltERKS_
000bd068 T _ZNK9epicsTimemiERKS_
000bdbf8 T _ZNK9epicsTimeplERKd
00000000 W _ZNKSt11logic_error4whatEv
         U _ZNKSt12_String_base5_XlenEv
         U _ZNKSt12_String_base5_XranEv
00000000 W _ZNKSt13runtime_error4whatEv
00000000 W _ZNKSt9bad_alloc4whatEv
00000000 W _ZNSs5_GrowEjb
00000000 W _ZNSs6assignERKSsjj
00000000 W _ZNSsC1EPKc
00000000 W _ZNSt11logic_errorD0Ev
00000000 W _ZNSt11logic_errorD1Ev
00000000 W _ZNSt13runtime_errorD0Ev
00000000 W _ZNSt13runtime_errorD1Ev
00000000 W _ZNSt9bad_allocD0Ev
00000000 W _ZNSt9bad_allocD1Ev
         U _ZNSt9exceptionD2Ev
         U _ZSt10unexpectedv
00000000 V _ZTI10SearchDest
00000000 V _ZTI10caServerID
00000000 V _ZTI10cacChannel
00000000 V _ZTI10cacContext
00000000 V _ZTI10cacRecycle
00000000 V _ZTI10cacService
00000000 V _ZTI10chronIntId
00000000 V _ZTI10epicsTimer
00000000 V _ZTI10inetAddrID
00000000 V _ZTI10timerQueue
00000000 V _ZTI11caErrorCode
00000000 V _ZTI11casgRecycle
00000000 V _ZTI11channelNode
00000000 V _ZTI11dbChannelIO
00000000 V _ZTI11getCallback
00000000 V _ZTI11putCallback
00000000 V _ZTI11searchTimer
00000000 V _ZTI12bheFreeStore
00000000 V _ZTI13SearchDestTCP
00000000 V _ZTI13cacReadNotify
00000000 V _ZTI13chronIntIdResI4CASGE
00000000 V _ZTI13chronIntIdResI4nciuE
00000000 V _ZTI13chronIntIdResI8baseNMIUE
00000000 V _ZTI13chronIntIdResI8dbBaseIOE
00000000 V _ZTI13hostNameCache
00000000 V _ZTI13tcpRecvThread
00000000 V _ZTI13tcpSendThread
00000000 V _ZTI13udpRecvThread
00000000 V _ZTI14cacStateNotify
00000000 V _ZTI14cacWriteNotify
00000000 V _ZTI14epicsTimerForC
00000000 V _ZTI15epicsTimerQueue
00000000 V _ZTI15netReadNotifyIO
00000000 V _ZTI15netSubscription
00000000 V _ZTI15oldSubscription
00000000 V _ZTI15syncGroupNotify
00000000 V _ZTI15tcpRecvWatchdog
00000000 V _ZTI15tcpSendWatchdog
00000000 V _ZTI15wireRecvAdapter
00000000 V _ZTI15wireSendAdapter
00000000 V _ZTI16bheMemoryManager
00000000 V _ZTI16cacChannelNotify
00000000 V _ZTI16cacContextNotify
00000000 V _ZTI16dbSubscriptionIO
00000000 V _ZTI16epicsTimerNotify
00000000 V _ZTI16netWriteNotifyIO
00000000 V _ZTI16oldChannelNotify
00000000 V _ZTI16timerQueueActive
00000000 V _ZTI17ca_client_context
00000000 V _ZTI17searchTimerNotify
00000000 V _ZTI17timerQueuePassive
00000000 V _ZTI18chronIntIdResTableI4CASGE
00000000 V _ZTI18chronIntIdResTableI4nciuE
00000000 V _ZTI18chronIntIdResTableI8baseNMIUE
00000000 V _ZTI18chronIntIdResTableI8dbBaseIOE
00000000 V _ZTI18dbPutNotifyBlocker
00000000 V _ZTI18epicsThreadRunable
00000000 V _ZTI18sourceFileLocationI11caErrorCodeE
00000000 V _ZTI18sourceFileLocationIN17ca_client_context8noSocketEE
00000000 V _ZTI18sourceFileLocationIN6udpiiu8noSocketEE
00000000 V _ZTI18sourceFileLocationIN9epicsTime24unableToFetchCurrentTimeEE
00000000 V _ZTI18sourceFileLocationIN9epicsTime25formatProblemWithStructTMEE
00000000 V _ZTI19comBufMemoryManager
00000000 V _ZTI19ipAddrToAsciiEngine
00000000 V _ZTI19repeaterTimerNotify
00000000 V _ZTI19syncGroupReadNotify
00000000 V _ZTI20syncGroupWriteNotify
00000000 V _ZTI21epicsTimerQueueActive
00000000 V _ZTI21epicsTimerQueueNotify
00000000 V _ZTI21ipAddrToAsciiCallBack
00000000 V _ZTI21privateInterfaceForIO
00000000 V _ZTI22cacComBufMemoryManager
00000000 V _ZTI22epicsTimerQueuePassive
00000000 V _ZTI22repeaterSubscribeTimer
00000000 V _ZTI23disconnectGovernorTimer
00000000 V _ZTI23msgForMultiplyDefinedPV
00000000 V _ZTI24dbContextPrivateListOfIO
00000000 V _ZTI24disconnectGovernorNotify
00000000 V _ZTI24ipAddrToAsciiTransaction
00000000 V _ZTI25epicsTimerQueueActiveForC
00000000 V _ZTI26epicsTimerQueuePassiveForC
00000000 V _ZTI26ipAddrToAsciiEnginePrivate
00000000 V _ZTI26timerQueueActiveMgrPrivate
00000000 V _ZTI28callbackForMultiplyDefinedPV
00000000 V _ZTI31ipAddrToAsciiTransactionPrivate
00000000 V _ZTI3bhe
00000000 V _ZTI3cac
00000000 V _ZTI4CASG
00000000 V _ZTI4nciu
00000000 V _ZTI5intIdIjLj8ELj32EE
00000000 V _ZTI5timer
00000000 V _ZTI6netiiu
00000000 V _ZTI6tcpiiu
00000000 V _ZTI6udpiiu
00000000 V _ZTI7getCopy
00000000 V _ZTI7noopiiu
00000000 V _ZTI8baseNMIU
00000000 V _ZTI8dbBaseIO
00000000 V _ZTI8resTableI3bhe10inetAddrIDE
00000000 V _ZTI8resTableI4CASG10chronIntIdE
00000000 V _ZTI8resTableI4nciu10chronIntIdE
00000000 V _ZTI8resTableI6tcpiiu10caServerIDE
00000000 V _ZTI8resTableI8baseNMIU10chronIntIdE
00000000 V _ZTI8resTableI8dbBaseIO10chronIntIdE
00000000 V _ZTI8tsDLNodeI10SearchDestE
00000000 V _ZTI8tsDLNodeI15syncGroupNotifyE
00000000 V _ZTI8tsDLNodeI16dbSubscriptionIOE
00000000 V _ZTI8tsDLNodeI25epicsTimerQueueActiveForCE
00000000 V _ZTI8tsDLNodeI31ipAddrToAsciiTransactionPrivateE
00000000 V _ZTI8tsDLNodeI4nciuE
00000000 V _ZTI8tsDLNodeI5timerE
00000000 V _ZTI8tsDLNodeI6tcpiiuE
00000000 V _ZTI8tsDLNodeI8baseNMIUE
00000000 V _ZTI8tsSLNodeI3bheE
00000000 V _ZTI8tsSLNodeI4CASGE
00000000 V _ZTI8tsSLNodeI4nciuE
00000000 V _ZTI8tsSLNodeI6tcpiiuE
00000000 V _ZTI8tsSLNodeI8baseNMIUE
00000000 V _ZTI8tsSLNodeI8dbBaseIOE
00000000 V _ZTI9dbContext
00000000 V _ZTI9dbService
00000000 V _ZTIN10SearchDest8CallbackE
00000000 V _ZTIN10cacChannel11badPriorityE
00000000 V _ZTIN10cacChannel11outOfBoundsE
00000000 V _ZTIN10cacChannel12noReadAccessE
00000000 V _ZTIN10cacChannel12notConnectedE
00000000 V _ZTIN10cacChannel13noWriteAccessE
00000000 V _ZTIN10cacChannel15requestTimedOutE
00000000 V _ZTIN10cacChannel17badEventSelectionE
00000000 V _ZTIN10cacChannel20msgBodyCacheTooSmallE
00000000 V _ZTIN10cacChannel20unsupportedByServiceE
00000000 V _ZTIN10cacChannel7badTypeE
00000000 V _ZTIN10cacChannel9badStringE
00000000 V _ZTIN10epicsEvent16invalidSemaphoreE
00000000 V _ZTIN10epicsMutex12invalidMutexE
00000000 V _ZTIN10epicsMutex17mutexCreateFailedE
00000000 V _ZTIN11epicsThread13exitExceptionE
00000000 V _ZTIN11epicsThread20unableToCreateThreadE
00000000 V _ZTIN17ca_client_context8noSocketE
00000000 V _ZTIN22epicsThreadPrivateBase27unableToCreateThreadPrivateE
00000000 V _ZTIN6comBuf25insufficentBytesAvailableE
00000000 V _ZTIN6udpiiu13SearchDestUDPE
00000000 V _ZTIN6udpiiu18SearchRespCallbackE
00000000 V _ZTIN6udpiiu8noSocketE
00000000 V _ZTIN9epicsTime24unableToFetchCurrentTimeE
00000000 V _ZTIN9epicsTime25formatProblemWithStructTME
00000000 V _ZTISt11logic_error
00000000 V _ZTISt13runtime_error
00000000 V _ZTISt9bad_alloc
         U _ZTISt9exception
         U _ZTIv
00000000 V _ZTS10SearchDest
00000000 V _ZTS10caServerID
00000000 V _ZTS10cacChannel
00000000 V _ZTS10cacContext
00000000 V _ZTS10cacRecycle
00000000 V _ZTS10cacService
00000000 V _ZTS10chronIntId
00000000 V _ZTS10epicsTimer
00000000 V _ZTS10inetAddrID
00000000 V _ZTS10timerQueue
00000000 V _ZTS11caErrorCode
00000000 V _ZTS11casgRecycle
00000000 V _ZTS11channelNode
00000000 V _ZTS11dbChannelIO
00000000 V _ZTS11getCallback
00000000 V _ZTS11putCallback
00000000 V _ZTS11searchTimer
00000000 V _ZTS12bheFreeStore
00000000 V _ZTS13SearchDestTCP
00000000 V _ZTS13cacReadNotify
00000000 V _ZTS13chronIntIdResI4CASGE
00000000 V _ZTS13chronIntIdResI4nciuE
00000000 V _ZTS13chronIntIdResI8baseNMIUE
00000000 V _ZTS13chronIntIdResI8dbBaseIOE
00000000 V _ZTS13hostNameCache
00000000 V _ZTS13tcpRecvThread
00000000 V _ZTS13tcpSendThread
00000000 V _ZTS13udpRecvThread
00000000 V _ZTS14cacStateNotify
00000000 V _ZTS14cacWriteNotify
00000000 V _ZTS14epicsTimerForC
00000000 V _ZTS15epicsTimerQueue
00000000 V _ZTS15netReadNotifyIO
00000000 V _ZTS15netSubscription
00000000 V _ZTS15oldSubscription
00000000 V _ZTS15syncGroupNotify
00000000 V _ZTS15tcpRecvWatchdog
00000000 V _ZTS15tcpSendWatchdog
00000000 V _ZTS15wireRecvAdapter
00000000 V _ZTS15wireSendAdapter
00000000 V _ZTS16bheMemoryManager
00000000 V _ZTS16cacChannelNotify
00000000 V _ZTS16cacContextNotify
00000000 V _ZTS16dbSubscriptionIO
00000000 V _ZTS16epicsTimerNotify
00000000 V _ZTS16netWriteNotifyIO
00000000 V _ZTS16oldChannelNotify
00000000 V _ZTS16timerQueueActive
00000000 V _ZTS17ca_client_context
00000000 V _ZTS17searchTimerNotify
00000000 V _ZTS17timerQueuePassive
00000000 V _ZTS18chronIntIdResTableI4CASGE
00000000 V _ZTS18chronIntIdResTableI4nciuE
00000000 V _ZTS18chronIntIdResTableI8baseNMIUE
00000000 V _ZTS18chronIntIdResTableI8dbBaseIOE
00000000 V _ZTS18dbPutNotifyBlocker
00000000 V _ZTS18epicsThreadRunable
00000000 V _ZTS18sourceFileLocationI11caErrorCodeE
00000000 V _ZTS18sourceFileLocationIN17ca_client_context8noSocketEE
00000000 V _ZTS18sourceFileLocationIN6udpiiu8noSocketEE
00000000 V _ZTS18sourceFileLocationIN9epicsTime24unableToFetchCurrentTimeEE
00000000 V _ZTS18sourceFileLocationIN9epicsTime25formatProblemWithStructTMEE
00000000 V _ZTS19comBufMemoryManager
00000000 V _ZTS19ipAddrToAsciiEngine
00000000 V _ZTS19repeaterTimerNotify
00000000 V _ZTS19syncGroupReadNotify
00000000 V _ZTS20syncGroupWriteNotify
00000000 V _ZTS21epicsTimerQueueActive
00000000 V _ZTS21epicsTimerQueueNotify
00000000 V _ZTS21ipAddrToAsciiCallBack
00000000 V _ZTS21privateInterfaceForIO
00000000 V _ZTS22cacComBufMemoryManager
00000000 V _ZTS22epicsTimerQueuePassive
00000000 V _ZTS22repeaterSubscribeTimer
00000000 V _ZTS23disconnectGovernorTimer
00000000 V _ZTS23msgForMultiplyDefinedPV
00000000 V _ZTS24dbContextPrivateListOfIO
00000000 V _ZTS24disconnectGovernorNotify
00000000 V _ZTS24ipAddrToAsciiTransaction
00000000 V _ZTS25epicsTimerQueueActiveForC
00000000 V _ZTS26epicsTimerQueuePassiveForC
00000000 V _ZTS26ipAddrToAsciiEnginePrivate
00000000 V _ZTS26timerQueueActiveMgrPrivate
00000000 V _ZTS28callbackForMultiplyDefinedPV
00000000 V _ZTS31ipAddrToAsciiTransactionPrivate
00000000 V _ZTS3bhe
00000000 V _ZTS3cac
00000000 V _ZTS4CASG
00000000 V _ZTS4nciu
00000000 V _ZTS5intIdIjLj8ELj32EE
00000000 V _ZTS5timer
00000000 V _ZTS6netiiu
00000000 V _ZTS6tcpiiu
00000000 V _ZTS6udpiiu
00000000 V _ZTS7getCopy
00000000 V _ZTS7noopiiu
00000000 V _ZTS8baseNMIU
00000000 V _ZTS8dbBaseIO
00000000 V _ZTS8resTableI3bhe10inetAddrIDE
00000000 V _ZTS8resTableI4CASG10chronIntIdE
00000000 V _ZTS8resTableI4nciu10chronIntIdE
00000000 V _ZTS8resTableI6tcpiiu10caServerIDE
00000000 V _ZTS8resTableI8baseNMIU10chronIntIdE
00000000 V _ZTS8resTableI8dbBaseIO10chronIntIdE
00000000 V _ZTS8tsDLNodeI10SearchDestE
00000000 V _ZTS8tsDLNodeI15syncGroupNotifyE
00000000 V _ZTS8tsDLNodeI16dbSubscriptionIOE
00000000 V _ZTS8tsDLNodeI25epicsTimerQueueActiveForCE
00000000 V _ZTS8tsDLNodeI31ipAddrToAsciiTransactionPrivateE
00000000 V _ZTS8tsDLNodeI4nciuE
00000000 V _ZTS8tsDLNodeI5timerE
00000000 V _ZTS8tsDLNodeI6tcpiiuE
00000000 V _ZTS8tsDLNodeI8baseNMIUE
00000000 V _ZTS8tsSLNodeI3bheE
00000000 V _ZTS8tsSLNodeI4CASGE
00000000 V _ZTS8tsSLNodeI4nciuE
00000000 V _ZTS8tsSLNodeI6tcpiiuE
00000000 V _ZTS8tsSLNodeI8baseNMIUE
00000000 V _ZTS8tsSLNodeI8dbBaseIOE
00000000 V _ZTS9dbContext
00000000 V _ZTS9dbService
00000000 V _ZTSN10SearchDest8CallbackE
00000000 V _ZTSN10cacChannel11badPriorityE
00000000 V _ZTSN10cacChannel11outOfBoundsE
00000000 V _ZTSN10cacChannel12noReadAccessE
00000000 V _ZTSN10cacChannel12notConnectedE
00000000 V _ZTSN10cacChannel13noWriteAccessE
00000000 V _ZTSN10cacChannel15requestTimedOutE
00000000 V _ZTSN10cacChannel17badEventSelectionE
00000000 V _ZTSN10cacChannel20msgBodyCacheTooSmallE
00000000 V _ZTSN10cacChannel20unsupportedByServiceE
00000000 V _ZTSN10cacChannel7badTypeE
00000000 V _ZTSN10cacChannel9badStringE
00000000 V _ZTSN10epicsEvent16invalidSemaphoreE
00000000 V _ZTSN10epicsMutex12invalidMutexE
00000000 V _ZTSN10epicsMutex17mutexCreateFailedE
00000000 V _ZTSN11epicsThread13exitExceptionE
00000000 V _ZTSN11epicsThread20unableToCreateThreadE
00000000 V _ZTSN17ca_client_context8noSocketE
00000000 V _ZTSN22epicsThreadPrivateBase27unableToCreateThreadPrivateE
00000000 V _ZTSN6comBuf25insufficentBytesAvailableE
00000000 V _ZTSN6udpiiu13SearchDestUDPE
00000000 V _ZTSN6udpiiu18SearchRespCallbackE
00000000 V _ZTSN6udpiiu8noSocketE
00000000 V _ZTSN9epicsTime24unableToFetchCurrentTimeE
00000000 V _ZTSN9epicsTime25formatProblemWithStructTME
00000000 V _ZTSSt11logic_error
00000000 V _ZTSSt13runtime_error
00000000 V _ZTSSt9bad_alloc
00000000 V _ZTV10SearchDest
00000000 V _ZTV10cacChannel
00000000 V _ZTV10cacContext
00000000 V _ZTV10cacRecycle
00000000 V _ZTV10cacService
00000000 V _ZTV10epicsTimer
00000000 V _ZTV10timerQueue
00000000 V _ZTV11casgRecycle
00000000 V _ZTV11dbChannelIO
00000000 V _ZTV11getCallback
00000000 V _ZTV11putCallback
00000000 V _ZTV11searchTimer
00000000 V _ZTV12bheFreeStore
00000000 V _ZTV13SearchDestTCP
00000000 V _ZTV13cacReadNotify
00000000 V _ZTV13hostNameCache
00000000 V _ZTV13tcpRecvThread
00000000 V _ZTV13tcpSendThread
00000000 V _ZTV13udpRecvThread
00000000 V _ZTV14cacStateNotify
00000000 V _ZTV14cacWriteNotify
00000000 V _ZTV14epicsTimerForC
00000000 V _ZTV15epicsTimerQueue
00000000 V _ZTV15netReadNotifyIO
00000000 V _ZTV15netSubscription
00000000 V _ZTV15oldSubscription
00000000 V _ZTV15syncGroupNotify
00000000 V _ZTV15tcpRecvWatchdog
00000000 V _ZTV15tcpSendWatchdog
00000000 V _ZTV15wireRecvAdapter
00000000 V _ZTV15wireSendAdapter
00000000 V _ZTV16bheMemoryManager
00000000 V _ZTV16cacChannelNotify
00000000 V _ZTV16cacContextNotify
00000000 V _ZTV16dbSubscriptionIO
00000000 V _ZTV16epicsTimerNotify
00000000 V _ZTV16netWriteNotifyIO
00000000 V _ZTV16oldChannelNotify
00000000 V _ZTV16timerQueueActive
00000000 V _ZTV17ca_client_context
00000000 V _ZTV17searchTimerNotify
00000000 V _ZTV17timerQueuePassive
00000000 V _ZTV18chronIntIdResTableI4CASGE
00000000 V _ZTV18chronIntIdResTableI4nciuE
00000000 V _ZTV18chronIntIdResTableI8baseNMIUE
00000000 V _ZTV18chronIntIdResTableI8dbBaseIOE
00000000 V _ZTV18dbPutNotifyBlocker
00000000 V _ZTV18epicsThreadRunable
00000000 V _ZTV19comBufMemoryManager
00000000 V _ZTV19ipAddrToAsciiEngine
00000000 V _ZTV19repeaterTimerNotify
00000000 V _ZTV19syncGroupReadNotify
00000000 V _ZTV20syncGroupWriteNotify
00000000 V _ZTV21epicsTimerQueueActive
00000000 V _ZTV21epicsTimerQueueNotify
00000000 V _ZTV21ipAddrToAsciiCallBack
00000000 V _ZTV21privateInterfaceForIO
00000000 V _ZTV22cacComBufMemoryManager
00000000 V _ZTV22epicsTimerQueuePassive
00000000 V _ZTV22repeaterSubscribeTimer
00000000 V _ZTV23disconnectGovernorTimer
00000000 V _ZTV23msgForMultiplyDefinedPV
00000000 V _ZTV24disconnectGovernorNotify
00000000 V _ZTV24ipAddrToAsciiTransaction
00000000 V _ZTV25epicsTimerQueueActiveForC
00000000 V _ZTV26epicsTimerQueuePassiveForC
00000000 V _ZTV26ipAddrToAsciiEnginePrivate
00000000 V _ZTV26timerQueueActiveMgrPrivate
00000000 V _ZTV28callbackForMultiplyDefinedPV
00000000 V _ZTV31ipAddrToAsciiTransactionPrivate
00000000 V _ZTV3cac
00000000 V _ZTV4CASG
00000000 V _ZTV4nciu
00000000 V _ZTV5timer
00000000 V _ZTV6netiiu
00000000 V _ZTV6tcpiiu
00000000 V _ZTV6udpiiu
00000000 V _ZTV7getCopy
00000000 V _ZTV7noopiiu
00000000 V _ZTV8baseNMIU
00000000 V _ZTV8dbBaseIO
00000000 V _ZTV8resTableI3bhe10inetAddrIDE
00000000 V _ZTV8resTableI4CASG10chronIntIdE
00000000 V _ZTV8resTableI4nciu10chronIntIdE
00000000 V _ZTV8resTableI6tcpiiu10caServerIDE
00000000 V _ZTV8resTableI8baseNMIU10chronIntIdE
00000000 V _ZTV8resTableI8dbBaseIO10chronIntIdE
00000000 V _ZTV9dbContext
00000000 V _ZTV9dbService
00000000 V _ZTVN10SearchDest8CallbackE
         U _ZTVN10__cxxabiv117__class_type_infoE
         U _ZTVN10__cxxabiv120__si_class_type_infoE
         U _ZTVN10__cxxabiv121__vmi_class_type_infoE
00000000 V _ZTVN10epicsEvent16invalidSemaphoreE
00000000 V _ZTVN10epicsMutex12invalidMutexE
00000000 V _ZTVN10epicsMutex17mutexCreateFailedE
00000000 V _ZTVN11epicsThread20unableToCreateThreadE
00000000 V _ZTVN6udpiiu13SearchDestUDPE
00000000 V _ZTVN6udpiiu18SearchRespCallbackE
00000000 V _ZTVSt11logic_error
00000000 V _ZTVSt13runtime_error
00000000 V _ZTVSt9bad_alloc
00000000 W _ZThn12_N16timerQueueActiveD0Ev
00000000 W _ZThn12_N16timerQueueActiveD1Ev
00000000 W _ZThn12_N19syncGroupReadNotify10completionER10epicsGuardI10epicsMutexEjmPKv
00000000 W _ZThn12_N19syncGroupReadNotify9exceptionER10epicsGuardI10epicsMutexEiPKcjm
00000000 W _ZThn12_N19syncGroupReadNotifyD0Ev
00000000 W _ZThn12_N19syncGroupReadNotifyD1Ev
00000000 W _ZThn12_N20syncGroupWriteNotify10completionER10epicsGuardI10epicsMutexE
00000000 W _ZThn12_N20syncGroupWriteNotify9exceptionER10epicsGuardI10epicsMutexEiPKcjm
00000000 W _ZThn12_N20syncGroupWriteNotifyD0Ev
00000000 W _ZThn12_N20syncGroupWriteNotifyD1Ev
00000000 W _ZThn12_N25epicsTimerQueueActiveForCD0Ev
00000000 W _ZThn12_N25epicsTimerQueueActiveForCD1Ev
00000000 W _ZThn12_N6udpiiu13printFormatedER10epicsGuardI10epicsMutexEPKcz
00000000 W _ZThn12_N6udpiiu27repeaterRegistrationMessageEj
00000000 W _ZThn12_N6udpiiuD0Ev
00000000 W _ZThn12_N6udpiiuD1Ev
00000000 W _ZThn28_N4nciu18ioCompletionNotifyER10epicsGuardI10epicsMutexER8baseNMIU
00000000 W _ZThn28_N4nciuD0Ev
00000000 W _ZThn28_N4nciuD1Ev
00000000 W _ZThn28_NK4nciu18nativeElementCountER10epicsGuardI10epicsMutexE
00000000 W _ZThn28_NK4nciu9connectedER10epicsGuardI10epicsMutexE
00000000 W _ZThn36_N6tcpiiu9sendBytesEPKvjRK9epicsTime
00000000 W _ZThn36_N6tcpiiuD0Ev
00000000 W _ZThn36_N6tcpiiuD1Ev
00000000 W _ZThn40_N6tcpiiu9recvBytesEPvjR12statusWireIO
00000000 W _ZThn40_N6tcpiiuD0Ev
00000000 W _ZThn40_N6tcpiiuD1Ev
00000000 W _ZThn4_N14epicsTimerForC7destroyEv
00000000 W _ZThn4_N14epicsTimerForCD0Ev
00000000 W _ZThn4_N14epicsTimerForCD1Ev
00000000 W _ZThn4_N16timerQueueActive3runEv
00000000 W _ZThn4_N16timerQueueActiveD0Ev
00000000 W _ZThn4_N16timerQueueActiveD1Ev
00000000 W _ZThn4_N25epicsTimerQueueActiveForCD0Ev
00000000 W _ZThn4_N25epicsTimerQueueActiveForCD1Ev
00000000 W _ZThn4_N26epicsTimerQueuePassiveForCD0Ev
00000000 W _ZThn4_N26epicsTimerQueuePassiveForCD1Ev
00000000 W _ZThn4_N26ipAddrToAsciiEnginePrivate3runEv
00000000 W _ZThn4_N26ipAddrToAsciiEnginePrivateD0Ev
00000000 W _ZThn4_N26ipAddrToAsciiEnginePrivateD1Ev
00000000 W _ZThn4_N3cac19recycleReadNotifyIOER10epicsGuardI10epicsMutexER15netReadNotifyIO
00000000 W _ZThn4_N3cac19recycleSubscriptionER10epicsGuardI10epicsMutexER15netSubscription
00000000 W _ZThn4_N3cac20recycleWriteNotifyIOER10epicsGuardI10epicsMutexER16netWriteNotifyIO
00000000 W _ZThn4_N3cacD0Ev
00000000 W _ZThn4_N3cacD1Ev
00000000 W _ZThn4_N6udpiiu10updateRTTEER10epicsGuardI10epicsMutexEd
00000000 W _ZThn4_N6udpiiu12boostChannelER10epicsGuardI10epicsMutexER4nciu
00000000 W _ZThn4_N6udpiiu13datagramFlushER10epicsGuardI10epicsMutexERK9epicsTime
00000000 W _ZThn4_N6udpiiu18noSearchRespNotifyER10epicsGuardI10epicsMutexER4nciuj
00000000 W _ZThn4_N6udpiiuD0Ev
00000000 W _ZThn4_N6udpiiuD1Ev
00000000 W _ZThn4_NK16timerQueueActive4showEj
00000000 W _ZThn4_NK26ipAddrToAsciiEnginePrivate4showEj
00000000 W _ZThn4_NK6udpiiu17datagramSeqNumberER10epicsGuardI10epicsMutexE
00000000 W _ZThn4_NK6udpiiu7getRTTEER10epicsGuardI10epicsMutexE
00000000 W _ZThn8_N16timerQueueActive10rescheduleEv
00000000 W _ZThn8_N16timerQueueActive7quantumEv
00000000 W _ZThn8_N16timerQueueActiveD0Ev
00000000 W _ZThn8_N16timerQueueActiveD1Ev
00000000 W _ZThn8_N25epicsTimerQueueActiveForCD0Ev
00000000 W _ZThn8_N25epicsTimerQueueActiveForCD1Ev
00000000 W _ZThn8_N3cac23pvMultiplyDefinedNotifyER23msgForMultiplyDefinedPVPKcS3_S3_
00000000 W _ZThn8_N3cacD0Ev
00000000 W _ZThn8_N3cacD1Ev
00000000 W _ZThn8_N6udpiiu15govExpireNotifyER10epicsGuardI10epicsMutexER4nciu
00000000 W _ZThn8_N6udpiiuD0Ev
00000000 W _ZThn8_N6udpiiuD1Ev
00005140 b _ZZ10osdNTPInitE9host_addr
00004780 b _ZZ13verifyClientsR10tsFreeListI14repeaterClientLj32E10epicsMutexEE10theClients
00004774 b _ZZ19register_new_clientR11osiSockAddrR10tsFreeListI14repeaterClientLj32E10epicsMutexEE4init
00001bc4 d _ZZ19register_new_clientR11osiSockAddrR10tsFreeListI14repeaterClientLj32E10epicsMutexEE8testSock
00004798 b _ZZ6fanOutRK11osiSockAddrPKvjR10tsFreeListI14repeaterClientLj32E10epicsMutexEE10theClients
00003db0 r _ZZN17ca_client_context7vSignalEiPKciS1_P13__va_list_tagE8severity
0000475c b _ZZN6tcpiiu15processIncomingERK9epicsTimeR15callbackManagerE4once
000048b8 b _ZZN9epicsTimeC1ERK14time_t_wrapperE3lti
00004738 b _ZZNK10cacChannel12accessRightsER10epicsGuardI10epicsMutexEE2ar
00005560 r _ZZNK9epicsTime8strftimeEPcjPKcE10pDoesntFit
00005574 r _ZZNK9epicsTime8strftimeEPcjPKcE3div
00005570 r _ZZNK9epicsTime8strftimeEPcjPKcE4pOVF
000048a8 b _ZZNK9epicsTimecv14time_t_wrapperEvE3lti
         U _ZdaPv
         U _ZdlPv
         U _Znaj
         U _Znwj
         U __assert
         U __ctype
         U __ctype_tolower
         U __ctype_toupper
         U __cxa_allocate_exception
         U __cxa_begin_catch
         U __cxa_call_unexpected
         U __cxa_end_catch
         U __cxa_free_exception
         U __cxa_guard_abort
         U __cxa_guard_acquire
         U __cxa_guard_release
         U __cxa_pure_virtual
         U __cxa_rethrow
         U __cxa_throw
         U __errno
         U __gxx_personality_v0
         U __stderr
         U __stdin
         U __stdout
         U __swbuf
0000023c D aSubRSET
000065c8 t aSubRecordSizeOffset
000b5de0 T aToIPAddr
000000fc D aaiRSET
000022bc t aaiRecordSizeOffset
0000014c D aaoRSET
00002df8 t aaoRecordSizeOffset
         U abort
         U accept
00053ad0 t accessRightsCallback
000234ec t access_rights_reply
         U acos
0001ed74 t add
00051a94 t addAction
00071368 T addAddrToChannelAccessAddressList
00047d88 t addToList
00005160 b addr$6686
000b5fdc T adjustToWorstCaseAlignment
0000019c D aiRSET
00003940 t aiRecordSizeOffset
00000de4 d ai_channels
0003662c t allocLockSet
000c4d4c t allocNode
0006a8c4 t allocTemp
00002174 d anyFuncs
000c48d4 t anyNotify
000001ec D aoRSET
00004cf8 t aoRecordSizeOffset
000024fc r argPdbbase
00002504 r argRecType
00000f7c r asAccessName
000015f4 B asActive
00031e68 T asAddClient
00031d68 T asAddMember
00031a40 t asAddMemberPvt
000323a8 t asAsgAdd
000015d0 B asCaDebug
0002e0c4 T asCaStart
0002df48 T asCaStop
0002e334 t asCaTask
000015e4 b asCaTaskAddChannels
000015e8 b asCaTaskClearChannels
000015dc b asCaTaskLock
000015e0 b asCaTaskWait
0002f514 T asCalloc
00031394 T asChangeClient
00031c10 T asChangeGroup
000312a8 T asCompute
000316d0 T asComputeAllAsg
000317f4 T asComputeAsg
000314e0 t asComputeAsgPvt
00031008 t asComputePvt
0002cbb4 T asDbGetAsl
0002cbc0 T asDbGetMemberPvt
00030064 T asDump
0002f644 T asDumpFP
00030c20 T asDumpHag
00030a68 T asDumpHagFP
0002f608 T asDumpHash
0002f0b8 t asDumpHashCallFunc
0002f5bc T asDumpHashFP
00000e0c r asDumpHashFuncDef
0003046c T asDumpMem
000300d0 T asDumpMemFP
00030a1c T asDumpRules
000304d8 T asDumpRulesFP
00030e24 T asDumpUag
00030c6c T asDumpUagFP
0002f314 T asGetClientPvt
0002f2cc T asGetMemberPvt
0002d798 T asInit
0002d23c T asInitAsyn
0002f240 t asInitCallFunc
0002d3d4 t asInitCommon
0002cba8 t asInitCommonOnce
000015cc b asInitCommonOnceFlag$4316
000349d8 T asInitFP
00034b70 T asInitFile
00000dac r asInitFuncDef
0002d6dc t asInitTask
000015c4 b asInitTheadId
000333a0 T asInitialize
00034c90 t asInitializeOnce
00001608 b asInitializeOnceFlag$2768
0002ef84 T asIocRegister
00000f74 r asLevelName
00001630 b asLock
00030e70 T asPutClientPvt
0002f2f4 T asPutMemberPvt
00030f28 T asRegisterClientCallback
000318e0 T asRemoveClient
00032010 T asRemoveMember
0002d910 T asSetFilename
00000e44 r asSetFilenameArg0
00000e18 r asSetFilenameArgs
0002f29c t asSetFilenameCallFunc
00000d94 r asSetFilenameFuncDef
0002d7f8 T asSetSubstitutions
00000e4c r asSetSubstitutionsArg0
00000e1c r asSetSubstitutionsArgs
0002f26c t asSetSubstitutionsCallFunc
00000da0 r asSetSubstitutionsFuncDef
0002d7c4 t asSpcAsCallback
0002f548 T asStrdup
0001ef4c t asSub
0001f054 T asSubInit
0001ef84 T asSubProcess
00000f38 d asSubRef
00000f88 r asTrapOption
00034cd0 T asTrapWriteAfterWrite
00034e6c T asTrapWriteBeforeWrite
00035204 T asTrapWriteRegisterListener
00035068 T asTrapWriteUnregisterListener
0002da28 T ascaStats
0002defc T ascar
00000e94 r ascarArg0
00000e40 r ascarArgs
0002f0e4 t ascarCallFunc
0002db74 T ascarFP
00000e00 r ascarFuncDef
0002ce90 T asdbdump
0002f214 t asdbdumpCallFunc
0002ce50 T asdbdumpFP
00000db8 r asdbdumpFuncDef
         U asin
0002cd80 T asphag
00000e5c r asphagArg0
00000e24 r asphagArgs
0002f1b4 t asphagCallFunc
0002cd50 T asphagFP
00000dd0 r asphagFuncDef
0002cc68 T aspmem
00000e6c r aspmemArg0
00000e74 r aspmemArg1
00000e2c r aspmemArgs
0002f150 t aspmemCallFunc
0002cbcc T aspmemFP
00000de8 r aspmemFuncDef
0002cd00 T asprules
00000e64 r asprulesArg0
00000e28 r asprulesArgs
0002f184 t asprulesCallFunc
0002ccd0 T asprulesFP
00000ddc r asprulesFuncDef
0002ce00 T aspuag
00000e54 r aspuagArg0
00000e20 r aspuagArgs
0002f1e4 t aspuagCallFunc
0002cdd0 T aspuagFP
00000dc4 r aspuagFuncDef
0002cee0 T astac
00000e7c r astacArg0
00000e84 r astacArg1
00000e8c r astacArg2
00000e34 r astacArgs
0002f114 t astacCallFunc
0002d0f8 t astacCallback
00000df4 r astacFuncDef
00017a0c t asyncFinish
         U atan
         U atan2
         U atoi
00026658 t bad_tcp_cmd_action
00026740 t bad_udp_cmd_action
0000000c C beaconAddrList
00000004 C beacon_ctl
00000004 C beacon_startStopEvent
00000334 D biRSET
00008670 t biRecordSizeOffset
         U bind
00002a5c b bkpt_stack_sem
00000384 D boRSET
0000928c t boRecordSizeOffset
00000ddc d bo_channels
         U bootStringToStruct
000a7630 t bucketAddItem
000a77bc T bucketAddItemPointerId
000a777c T bucketAddItemStringId
000a77fc T bucketAddItemUnsignedId
000a78d8 T bucketCreate
000a783c T bucketFree
000001c0 b bucketID$8905
000a739c t bucketLookupAndRemoveItem
000a75c0 T bucketLookupAndRemoveItemPointerId
000a7588 T bucketLookupAndRemoveItemStringId
000a75f8 T bucketLookupAndRemoveItemUnsignedId
000a722c t bucketLookupItem
000a732c T bucketLookupItemPointerId
000a72f4 T bucketLookupItemStringId
000a7364 T bucketLookupItemUnsignedId
000a6eec t bucketPointerCompare
000a6f70 t bucketPointerHash
000a74e8 T bucketRemoveItemPointerId
000a7498 T bucketRemoveItemStringId
000a7538 T bucketRemoveItemUnsignedId
000a6fe0 T bucketShow
000a7170 t bucketStringCompare
000a6f9c t bucketStringHash
000a6ea8 t bucketUnsignedCompare
000a6f44 t bucketUnsignedHash
00002804 r bus
00004744 B caClientCallbackThreadId
0000473c B caClientContextId
00004740 b caClientContextIdOnce
000015d8 b caInitializing
00071840 T caNetConvert
000a36f8 T caRepeaterThread
00070900 T ca_add_exception_event
000705fc T ca_add_fd_registration
00070164 T ca_add_masked_array_event
0007a678 T ca_array_get
00079f34 T ca_array_get_callback
00079524 T ca_array_put
0007a2e8 T ca_array_put_callback
00070e38 T ca_attach_context
000704b4 T ca_beacon_anomaly_count
000787dc T ca_beacon_period
00070d2c T ca_build_and_connect
00078e04 T ca_change_connection_event
0006fec0 T ca_channel_status
00070fb0 T ca_clear_channel
00070138 T ca_clear_event
00074bac T ca_clear_subscription
00070de8 T ca_client_exit_handler
0007042c T ca_client_status
000701a0 T ca_context_create
0006fde8 T ca_context_destroy
0006fe90 T ca_context_status
0007099c T ca_create_channel
00079194 T ca_create_subscription
0006fd0c T ca_current_context
0006fda4 T ca_detach_context
000718d4 T ca_dump_dbr
00078bf4 T ca_element_count
0006fc80 T ca_evid_to_chid
00078ca4 T ca_field_type
00070ed8 T ca_flush_io
000790f0 T ca_get_host_name
00070514 T ca_get_ioc_connection_count
0007906c T ca_host_name
00070d8c T ca_init_client_context
0006fc88 T ca_message
00001a08 D ca_message_text
0006fc70 T ca_modify_host_name
0006fc78 T ca_modify_user_name
0007894c T ca_name
000708ac T ca_pend
000707c8 T ca_pend_event
000706e8 T ca_pend_io
0006fcc0 T ca_preemtive_callback_is_enabled
00078f74 T ca_puser
00078a80 T ca_read_access
0007871c T ca_receive_watchdog_delay
00079904 T ca_replace_access_rights_event
00070574 T ca_replace_printf_handler
00070cf0 T ca_search_and_connect
0007889c T ca_search_attempts
0006fd58 T ca_self_test
00000002 C ca_server_port
00078ff0 T ca_set_puser
00070104 T ca_signal
0006ff18 T ca_signal_formated
000700c4 T ca_signal_with_file_and_lineno
00078b30 T ca_state
0006fe60 T ca_task_exit
00070320 T ca_task_initialize
0007399c T ca_test_event
00070698 T ca_test_io
00078d54 T ca_v42_ok
0006fcb4 T ca_version
000789d0 T ca_write_access
0005553c T cacAttachClientCtx
00004728 b cacChannelIdOnce
0006fad8 T cacChannelSetup
00074228 T cacExitHandler
00004078 R cacNillBytes
00078330 T cacNoopAccesRightsHandler
00004750 b cacOnce
00074138 T cacOnceFunc
000a860c T calcArgUsage
000a7cc8 T calcErrorStr
000a7cf0 T calcExprDump
000a875c T calcPerform
000003d4 D calcRSET
0000a328 t calcRecordSizeOffset
00000424 D calcoutRSET
00000004 C calcoutRecDebug
0000b484 t calcoutRecordSizeOffset
00045e58 t callUser
0004feac T callbackCancelDelayed
000502ac T callbackInit
00050410 t callbackInitOnce
00003a5c b callbackOnceFlag
00003a6c b callbackQ
000016f4 d callbackQueueSize
000500c4 T callbackRequest
0004fee8 T callbackRequestDelayed
00050260 T callbackRequestProcessCallback
0004ff88 T callbackRequestProcessCallbackDelayed
00003a60 b callbackSem
0004fe94 T callbackSetProcess
00050064 T callbackSetQueueSize
00002298 r callbackSetQueueSizeArg0
00002124 r callbackSetQueueSizeArgs
0005b934 t callbackSetQueueSizeCallFunc
00002060 r callbackSetQueueSizeFuncDef
000502ec t callbackShutdown
00050658 t callbackTask
         U calloc
000b6210 T callocMustSucceed
0002678c T camessage
00022df0 T camsgtask
000036ac b canceledEvent
000b5ff8 T cantProceed
00024414 t casAccessRightsCB
00020938 T casAttachThreadToClient
00024160 t casCreateChannel
000206bc T casExpandRecvBuffer
0002082c T casExpandSendBuffer
00022d50 T casHostNameInitiatingCurrentThread
000205b0 T casStatsFetch
00022cb0 T casUserNameInitiatingCurrentThread
00029920 T cas_commit_msg
0002a13c T cas_copy_in_header
00029d5c T cas_send_bs_msg
00029b10 T cas_send_dg_msg
00029784 T cas_set_header_cid
00029a30 T cas_set_header_count
00021e20 T casr
00000350 r casrArg0
0000034c r casrArgs
00029754 t casrCallFunc
00000340 r casrFuncDef
0002a634 T cast_server
00000004 C castcp_ctl
00000004 C castcp_startStopEvent
00000004 C casudp_ctl
00000004 C casudp_startStopEvent
         U ceil
         U chdir
00005074 r chdirArg0
00005020 r chdirArgs
000b1dc0 t chdirCallFunc
00004f14 r chdirFuncDef
0000c520 t checkLinks
0000d3ec t checkLinksCallback
00025974 t claim_ciu_action
00023678 t claim_ciu_reply
0002a388 t clean_addrq
0000169c T clear_Sweep_Option
00027024 t clear_channel_reply
0000000c C clientQ
00000004 C clientQlock
00004768 b client_list
00025fe0 t client_name_action
         U clock_gettime
         U clock_settime
         U close
00004ee0 r commentArg0
0000214c d commentArgs
000aefcc t commentCallFunc
00004ea4 r commentFuncDef
0000d950 t compare
00000474 D compressRSET
0000d464 t compressRecordSizeOffset
000a86b4 t cond_search
000715e0 T configureChannelAccessAddressList
         U connect
0002ebe0 t connectCallback
00053c74 t connectionCallback
000057f4 t convert
0001417c t convert
00015368 t convert
0001f46c T coreRelease
0001f390 t coreReleaseCallFunc
00000240 r coreReleaseFuncDef
         U cos
         U cosh
00021750 t countChanListBytes
00001a2c T cpciIntISR
000b3678 t cpy2val
000b37bc t create
000b6458 t createExitPvt
000c3630 t createFunction
00020fd8 T create_client
000214a4 T create_tcp_client
000a9494 T cvtBitsToUlong
000a9a24 T cvtCharToString
00063c10 t cvtDecimalOrHexToShort
000a9f14 T cvtDoubleToCompactString
000a9b08 T cvtDoubleToExpString
000a9bec T cvtDoubleToString
00054fc8 T cvtEngToRawBpt
000aa270 T cvtFloatToCompactString
000a9b70 T cvtFloatToExpString
000aa02c T cvtFloatToString
000a961c T cvtLongToHexString
000a94d0 T cvtLongToOctalString
000a977c T cvtLongToString
00055250 T cvtRawToEngBpt
000a98d0 T cvtShortToString
000a9278 T cvtUcharToString
000a94ac T cvtUlongToBits
000a93e0 T cvtUlongToString
000a932c T cvtUshortToString
00043a9c t cvt_c_c
00043b10 t cvt_c_d
00043b24 t cvt_c_e
00043afc t cvt_c_f
00043adc t cvt_c_l
00043abc t cvt_c_s
000448ec t cvt_c_st
00043aac t cvt_c_uc
00043aec t cvt_c_ul
00043acc t cvt_c_us
00043edc t cvt_d_c
00043f54 t cvt_d_d
00043f64 t cvt_d_e
00044630 t cvt_d_f
00043f2c t cvt_d_l
00043f04 t cvt_d_s
00044678 t cvt_d_st
00043ef0 t cvt_d_uc
00043f40 t cvt_d_ul
00043f18 t cvt_d_us
000028bc t cvt_dbaddr
000033f8 t cvt_dbaddr
00007a7c t cvt_dbaddr
0000d980 t cvt_dbaddr
00014470 t cvt_dbaddr
0001b360 t cvt_dbaddr
0001be04 t cvt_dbaddr
00044358 t cvt_device_st
00043f78 t cvt_e_c
00043fec t cvt_e_d
00044000 t cvt_e_e
00043fd8 t cvt_e_f
00043fb8 t cvt_e_l
00043f98 t cvt_e_s
00044584 t cvt_e_st_get
00044010 t cvt_e_st_put
00043f88 t cvt_e_uc
00043fc8 t cvt_e_ul
00043fa8 t cvt_e_us
00043e2c t cvt_f_c
00043eb4 t cvt_f_d
00043ec8 t cvt_f_e
00043ea4 t cvt_f_f
00043e7c t cvt_f_l
00043e54 t cvt_f_s
00044730 t cvt_f_st
00043e40 t cvt_f_uc
00043e90 t cvt_f_ul
00043e68 t cvt_f_us
00043cfc t cvt_l_c
00043d70 t cvt_l_d
00043d84 t cvt_l_e
00043d5c t cvt_l_f
00043d3c t cvt_l_l
00043d1c t cvt_l_s
00044850 t cvt_l_st
00043d0c t cvt_l_uc
00043d4c t cvt_l_ul
00043d2c t cvt_l_us
00044418 t cvt_menu_st
00043bcc t cvt_s_c
00043c40 t cvt_s_d
00043c54 t cvt_s_e
00043c2c t cvt_s_f
00043c0c t cvt_s_l
00043bec t cvt_s_s
00044884 t cvt_s_st
00043bdc t cvt_s_uc
00043c1c t cvt_s_ul
00043bfc t cvt_s_us
00044d20 t cvt_st_c
00044abc t cvt_st_d
00044078 t cvt_st_device
00044924 t cvt_st_e
00044bac t cvt_st_f
00044c20 t cvt_st_l
000441e8 t cvt_st_menu
00044ca0 t cvt_st_s
000444d8 t cvt_st_st
00044e20 t cvt_st_uc
00044b38 t cvt_st_ul
00044da0 t cvt_st_us
00043b34 t cvt_uc_c
00043ba8 t cvt_uc_d
00043bbc t cvt_uc_e
00043b94 t cvt_uc_f
00043b74 t cvt_uc_l
00043b54 t cvt_uc_s
000448b8 t cvt_uc_st
00043b44 t cvt_uc_uc
00043b84 t cvt_uc_ul
00043b64 t cvt_uc_us
00043d94 t cvt_ul_c
00043e08 t cvt_ul_d
00043e1c t cvt_ul_e
00043df4 t cvt_ul_f
00043dd4 t cvt_ul_l
00043db4 t cvt_ul_s
0004481c t cvt_ul_st
00043da4 t cvt_ul_uc
00043de4 t cvt_ul_ul
00043dc4 t cvt_ul_us
00043c64 t cvt_us_c
00043cd8 t cvt_us_d
00043cec t cvt_us_e
00043cc4 t cvt_us_f
00043ca4 t cvt_us_l
00043c84 t cvt_us_s
00044044 t cvt_us_st
00043c74 t cvt_us_uc
00043cb4 t cvt_us_ul
00043c94 t cvt_us_us
00001940 T dataProcess
000b1e14 T date
0000506c r dateArg0
0000501c r dateArgs
000b1f14 t dateCallFunc
00004f08 r dateFuncDef
000636a8 t dbAddOnePath
00063790 T dbAddPath
0006b6dc t dbAlias
00069d8c T dbAllocBase
00069594 T dbAllocEntry
00066224 T dbAllocForm
0005e7f8 T dbAllocRecord
0003b120 T dbBkpt
0003be04 t dbBkptCont
0003c124 T dbBkptInit
00003ad8 B dbBptNotMonotonic
0006afe8 t dbBreakItem
000373b8 T dbBufferSize
00052600 T dbCaAddLinkCallback
0005426c T dbCaCallbackProcess
00000004 C dbCaClientContext
00003aa8 b dbCaCtl
00051344 T dbCaGetAlarm
00050ab8 T dbCaGetAlarmLimits
00050ff8 T dbCaGetAttributes
00050e48 T dbCaGetControlLimits
00050c98 T dbCaGetGraphicLimits
00052124 T dbCaGetLink
000511ac T dbCaGetLinkDBFtype
000514f8 T dbCaGetNelements
00050920 T dbCaGetPrecision
00051874 T dbCaGetTimeStamp
00051684 T dbCaGetUnits
00050800 T dbCaIsLinkConnected
0005281c T dbCaLinkInit
00051a14 T dbCaPause
00051d30 T dbCaPutLinkCallback
00052534 T dbCaRemoveLink
00051a54 T dbCaRun
00052774 t dbCaShutdown
00052c30 t dbCaTask
0006197c T dbCatString
000695fc T dbCopyEntry
0005f07c T dbCopyEntryContents
000388a4 t dbCopyInNameComponentOfPV
000686e8 T dbCopyRecord
00067a58 T dbCreateAlias
00068408 T dbCreateRecord
00061818 T dbCvtLinkToConstant
000616f8 T dbCvtLinkToPvlink
00001712 D dbDBRnewToDBRold
00001704 D dbDBRoldToDBFnew
00037480 T dbDSETtoDevSup
000375d4 T dbDTYPtoDevSup
000682bc T dbDeleteAliases
00063028 T dbDeleteInfo
00068014 T dbDeleteRecord
000606e4 T dbDumpBreaktable
00002524 r dbDumpBreaktableArg1
000024e4 r dbDumpBreaktableArgs
0005edd0 t dbDumpBreaktableCallFunc
00002470 r dbDumpBreaktableFuncDef
00060874 T dbDumpDevice
000024cc r dbDumpDeviceArgs
0005eeec t dbDumpDeviceCallFunc
00002434 r dbDumpDeviceFuncDef
0005fb7c T dbDumpDriver
000024d4 r dbDumpDriverArgs
0005eeb4 t dbDumpDriverCallFunc
00002440 r dbDumpDriverFuncDef
00060a74 T dbDumpField
0000251c r dbDumpFieldArg2
000024c0 r dbDumpFieldArgs
0005ef28 t dbDumpFieldCallFunc
00002428 r dbDumpFieldFuncDef
0005f8cc T dbDumpFunction
000024dc r dbDumpFunctionArgs
0005ee44 t dbDumpFunctionCallFunc
00002458 r dbDumpFunctionFuncDef
00060534 T dbDumpMenu
00002514 r dbDumpMenuArg1
000024b0 r dbDumpMenuArgs
0005efa8 t dbDumpMenuCallFunc
00002410 r dbDumpMenuFuncDef
00061240 T dbDumpPath
000024a0 r dbDumpPathArgs
0005f028 t dbDumpPathCallFunc
000023f8 r dbDumpPathFuncDef
000693b8 T dbDumpRecord
0000250c r dbDumpRecordArg2
000024a4 r dbDumpRecordArgs
0005efe4 t dbDumpRecordCallFunc
00002404 r dbDumpRecordFuncDef
00060fd8 T dbDumpRecordType
000024b8 r dbDumpRecordTypeArgs
0005ef6c t dbDumpRecordTypeCallFunc
0000241c r dbDumpRecordTypeFuncDef
0005fa24 T dbDumpRegistrar
000024d8 r dbDumpRegistrarArgs
0005ee7c t dbDumpRegistrarCallFunc
0000244c r dbDumpRegistrarFuncDef
0005f774 T dbDumpVariable
000024e0 r dbDumpVariableArgs
0005ee0c t dbDumpVariableCallFunc
00002464 r dbDumpVariableFuncDef
0000132c D dbFastGetConvertRoutine
0000150c D dbFastPutConvertRoutine
00062cc0 T dbFindBrkTable
00062c30 T dbFindDriver
000645b4 T dbFindField
000641c8 T dbFindFieldPart
0005fd6c T dbFindInfo
00062c78 T dbFindMenu
000679c0 T dbFindRecord
000678d4 T dbFindRecordPart
00062d08 T dbFindRecordType
00061688 T dbFinishEntry
00061600 T dbFirstField
0005f420 T dbFirstInfo
0005f280 T dbFirstRecord
0005f0cc T dbFirstRecordType
0005f408 T dbFoundField
0006966c T dbFreeBase
00069518 T dbFreeEntry
00061634 T dbFreeForm
00063b0c T dbFreeLinkContents
000630d8 T dbFreePath
0005e77c T dbFreeRecord
000681a4 T dbFreeRecords
00037ca0 T dbGet
00037534 T dbGetAlarm
000382a4 T dbGetAlarmLimits
0006443c T dbGetAttributePart
00038484 T dbGetControlLimits
00000f6c D dbGetConvertRoutine
0005f238 T dbGetDefault
00061b20 T dbGetDeviceMenu
0003855c T dbGetField
0005d690 T dbGetFieldAddress
00037398 T dbGetFieldIndex
0005f220 T dbGetFieldName
0006225c T dbGetFieldType
0005f510 T dbGetFormPrompt
00062504 T dbGetFormValue
000383ac T dbGetGraphicLimits
0005fe40 T dbGetInfo
0005f4a8 T dbGetInfoName
0005f4f8 T dbGetInfoPointer
0005f4c0 T dbGetInfoString
00039670 T dbGetLinkDBFtype
00061438 T dbGetLinkField
00061398 T dbGetLinkType
00038cec T dbGetLinkValue
00061e8c T dbGetMenuChoices
0005d85c T dbGetMenuIndex
00061c68 T dbGetMenuIndexFromString
00061d58 T dbGetMenuStringFromIndex
0005f344 T dbGetNAliases
0005f19c T dbGetNFields
0005f528 T dbGetNLinks
00061e10 T dbGetNMenuChoices
0005f190 T dbGetNRecordTypes
0005f32c T dbGetNRecords
00039750 T dbGetNelements
000381e4 T dbGetPrecision
0005f250 T dbGetPrompt
0005f268 T dbGetPromptGroup
00061f88 T dbGetRange
00064580 T dbGetRecordAttribute
0005f35c T dbGetRecordName
0005f184 T dbGetRecordTypeName
00064adc T dbGetRelatedField
00037360 T dbGetRset
00063cec T dbGetString
0005e15c T dbGetStringNum
000374c4 T dbGetTimeStamp
000380e4 T dbGetUnits
0005d620 T dbInitDevSup
00063ab8 T dbInitEntry
0005f3a8 T dbInvisibleRecord
0005b5a8 T dbIocRegister
0005f3ec T dbIsAlias
0005e470 T dbIsDefaultValue
000396ec T dbIsLinkConnected
0005d734 T dbIsMacroOk
0003737c T dbIsValueField
0005f3d0 T dbIsVisibleRecord
000387f4 T dbLoadDatabase
00002180 r dbLoadDatabaseArg0
00002188 r dbLoadDatabaseArg1
00002190 r dbLoadDatabaseArg2
00002098 r dbLoadDatabaseArgs
0005be34 t dbLoadDatabaseCallFunc
00001f28 r dbLoadDatabaseFuncDef
000387b0 T dbLoadRecords
00002198 r dbLoadRecordsArg0
000021a0 r dbLoadRecordsArg1
000020a4 r dbLoadRecordsArgs
0005be00 t dbLoadRecordsCallFunc
00001f34 r dbLoadRecordsFuncDef
0002bf64 T dbLoadTemplate
00000368 r dbLoadTemplateArg0
00000364 r dbLoadTemplateArgs
0002acbc t dbLoadTemplateCallFunc
00000358 r dbLoadTemplateFuncDef
00035dcc T dbLockGetLockId
00036c58 T dbLockInitRecords
00002a18 b dbLockIsInitialized
00035398 T dbLockSetAddrTrace
00035d2c T dbLockSetGblLock
000364f0 T dbLockSetGblUnlock
00035eb0 T dbLockSetMerge
00036118 T dbLockSetRecordLock
000367d8 T dbLockSetSplit
000353a8 T dbLockShowLocked
00002278 r dbLockShowLockedArg0
00002114 r dbLockShowLockedArgs
0005ba24 t dbLockShowLockedCallFunc
00002024 r dbLockShowLockedFuncDef
00038978 T dbNameOfPV
0003883c T dbNameSizeOfPV
00038a1c T dbNameToAddr
000614d0 T dbNextField
0005f45c T dbNextInfo
0005f2f4 T dbNextRecord
0005f124 T dbNextRecordType
000453a8 T dbNotifyAdd
00045a04 T dbNotifyCancel
0004575c T dbNotifyCompletion
00044ea0 T dbNotifyDump
0005babc t dbNotifyDumpCallFunc
00002000 r dbNotifyDumpFuncDef
0006a1b8 t dbOpenFile
00063a1c T dbPath
0003ad88 T dbPrint
000390c8 T dbProcess
00039adc T dbPut
000397dc T dbPutAttribute
0000114c D dbPutConvertRoutine
0003a0c8 T dbPutField
00064bc0 T dbPutForm
00062e3c T dbPutInfo
0005f4d8 T dbPutInfoPointer
00062d90 T dbPutInfoString
00039f38 T dbPutLinkValue
0005d73c T dbPutMenuIndex
00046440 T dbPutNotify
00046bbc T dbPutNotifyInit
0004df04 T dbPutNotifyMapType
000676e0 T dbPutRecordAttribute
0003990c T dbPutSpecial
000665cc T dbPutString
0005d930 T dbPutStringNum
0006f35c T dbPvdAdd
0006f200 T dbPvdDelete
0006edec T dbPvdDump
0000252c r dbPvdDumpArg1
000024ec r dbPvdDumpArgs
0005ed94 t dbPvdDumpCallFunc
0000247c r dbPvdDumpFuncDef
0006f57c T dbPvdFind
0006f038 T dbPvdFreeMem
00004720 B dbPvdHashTableSize
0006f6dc T dbPvdInitPvt
0006ed68 T dbPvdTableSize
00002534 r dbPvdTableSizeArg0
000024f4 r dbPvdTableSizeArgs
0005ed64 t dbPvdTableSizeCallFunc
00002488 r dbPvdTableSizeFuncDef
0006e608 t dbReadCOM
0006ed30 T dbReadDatabase
0006ecf0 T dbReadDatabaseFP
0006b608 t dbRecordAlias
0006b31c t dbRecordBody
0006b3c0 t dbRecordField
0006b08c t dbRecordHead
0006b51c t dbRecordInfo
0005d6f0 T dbRecordName
00003ad4 B dbRecordsOnceOnly
0006aa64 t dbRecordtypeFieldItem
00067cc4 T dbRenameRecord
00064674 T dbReportDeviceConfig
000024f8 r dbReportDeviceConfigArgs
0005ed0c t dbReportDeviceConfigCallFunc
00002494 r dbReportDeviceConfigFuncDef
000395cc T dbScanFwdLink
00039554 T dbScanLink
00036f14 T dbScanLock
00038c74 T dbScanPassive
00035b5c T dbScanUnlock
0005595c T dbServiceIOInit
00037354 T dbSpcAsRegisterCallback
00003acc B dbStaticDebug
0005eb90 T dbStaticIocRegister
00059100 T dbSubscriptionEventCallback
000b7920 T dbTranslateEscape
000373a4 T dbValueSize
0006a924 t dbVariable
000631a8 T dbVerify
00065e10 T dbVerifyForm
0005f380 T dbVisibleRecord
00068bb8 T dbWriteBreaktable
0005f544 T dbWriteBreaktableFP
00068cb0 T dbWriteDevice
0005fc10 T dbWriteDeviceFP
00068c34 T dbWriteDriver
0005fab8 T dbWriteDriverFP
0005f808 T dbWriteFunctionFP
00068db8 T dbWriteMenu
00060388 T dbWriteMenuFP
00069474 T dbWriteRecord
00068e44 T dbWriteRecordFP
00068d2c T dbWriteRecordType
0005fea0 T dbWriteRecordTypeFP
0005f960 T dbWriteRegistrarFP
0005f6ac T dbWriteVariableFP
00049fbc T db_add_event
00048e1c T db_add_extra_labor_event
00049bd8 T db_cancel_event
00048bdc T db_close_events
00048c14 T db_event_change_priority
00049b18 T db_event_disable
00049efc T db_event_enable
00048b6c T db_event_flow_ctrl_mode_off
00048ba4 T db_event_flow_ctrl_mode_on
0004a8a0 T db_event_list
000001d4 b db_file_name
000499fc T db_flush_extra_labor_event
0004f300 T db_get_field
0004e198 T db_get_field_and_count
0004a200 T db_init_events
0004f3bc T db_name_to_addr
00049894 T db_post_events
00048d40 T db_post_extra_labor
00049820 T db_post_single_event
0004959c t db_post_single_event_private
0004f460 T db_process
0004dfc8 T db_put_field
00048ec0 T db_start_events
0004ac84 T dba
000021a8 r dbaArg0
000020ac r dbaArgs
0005bdd0 t dbaCallFunc
00001f40 r dbaFuncDef
0003a8d4 T dbap
00002158 r dbapArg0
00002084 r dbapArgs
0005bed8 t dbapCallFunc
00001f04 r dbapFuncDef
0003ba4c T dbb
00002128 r dbbArg0
0000206c r dbbArgs
0005bff8 t dbbCallFunc
00001ebc r dbbFuncDef
0003b674 T dbc
00002138 r dbcArg0
00002074 r dbcArgs
0005bf98 t dbcCallFunc
00001ed4 r dbcFuncDef
000542d4 T dbcaStats
00054508 T dbcar
00002160 r dbcarArg0
00002168 r dbcarArg1
00002088 r dbcarArgs
0005bea4 t dbcarCallFunc
00001f10 r dbcarFuncDef
0003b7b0 T dbd
00002130 r dbdArg0
00002070 r dbdArgs
0005bfc8 t dbdCallFunc
00001ec8 r dbdFuncDef
0004a430 T dbel
00002170 r dbelArg0
00002178 r dbelArg1
00002090 r dbelArgs
0005be70 t dbelCallFunc
00001f1c r dbelFuncDef
000036a8 b dbevEventBlockFreeList
000036a4 b dbevEventQueueFreeList
000036a0 b dbevEventUserFreeList
00001bc4 r dbf
00001afc D dbf_text
00003d0a R dbf_text_dim
00001b20 D dbf_text_invalid
0004c9e0 T dbgf
000021d8 r dbgfArg0
000020c4 r dbgfArgs
0005bcdc t dbgfCallFunc
00001f7c r dbgfFuncDef
0004d3d4 T dbgrep
000021d0 r dbgrepArg0
000020c0 r dbgrepArgs
0005bd0c t dbgrepCallFunc
00001f70 r dbgrepFuncDef
0004a8cc T dbhcr
0005bb80 t dbhcrCallFunc
00001fd0 r dbhcrFuncDef
0004a960 T dbior
00002220 r dbiorArg0
00002228 r dbiorArg1
000020e8 r dbiorArgs
0005bbac t dbiorCallFunc
00001fc4 r dbiorFuncDef
0004da50 T dbl
000021b0 r dblArg0
000021b8 r dblArg1
000020b0 r dblArgs
0005bd9c t dblCallFunc
00001f4c r dblFuncDef
0004d5d4 T dbla
000021c8 r dblaArg0
000020bc r dblaArgs
0005bd3c t dblaCallFunc
00001f64 r dblaFuncDef
000356a8 T dblsr
00002268 r dblsrArg0
00002270 r dblsrArg1
0000210c r dblsrArgs
0005ba54 t dblsrCallFunc
00002018 r dblsrFuncDef
000047ac B dbmfDebug
000aa958 T dbmfFree
000aa7cc T dbmfFreeChunks
000aaae4 T dbmfInit
000aabf4 T dbmfMalloc
00000030 C dbmfPvt
000aa5dc T dbmfShow
000aaedc T dbmfStrdup
0004d838 T dbnr
000021c0 r dbnrArg0
000020b8 r dbnrArgs
0005bd6c t dbnrCallFunc
00001f58 r dbnrFuncDef
0003b03c T dbp
00002148 r dbpArg0
00002150 r dbpArg1
0000207c r dbpArgs
0005bf08 t dbpCallFunc
00001ef8 r dbpFuncDef
0004d1e0 T dbpf
000021e0 r dbpfArg0
000021e8 r dbpfArg1
000020c8 r dbpfArgs
0005bca8 t dbpfCallFunc
00001f88 r dbpfFuncDef
0004cb64 T dbpr
000021f0 r dbprArg0
000021f8 r dbprArg1
000020d0 r dbprArgs
0005bc74 t dbprCallFunc
00001f94 r dbprFuncDef
0004af4c t dbpr_insert_msg
0004b080 t dbpr_msgOut
0004aec4 t dbpr_msg_flush
0003a9f4 T dbprc
00001b98 r dbr
00003b84 R dbr_size
00001b24 D dbr_text
00003d0c R dbr_text_dim
00001bc0 D dbr_text_invalid
00003c20 R dbr_value_class
00003cbc R dbr_value_offset
00003bd2 R dbr_value_size
00003ac4 b dbs
0003b540 T dbs
00002140 r dbsArg0
00002078 r dbsArgs
0005bf68 t dbsCallFunc
00001ee0 r dbsFuncDef
0003aaf4 T dbstat
0005bf3c t dbstatCallFunc
00001eec r dbstatFuncDef
0004c51c T dbtgf
00002208 r dbtgfArg0
000020dc r dbtgfArgs
0005bc14 t dbtgfCallFunc
00001fac r dbtgfFuncDef
0002ac80 T dbtoolsIocRegister
0004c0c4 T dbtpf
00002210 r dbtpfArg0
00002218 r dbtpfArg1
000020e0 r dbtpfArgs
0005bbe0 t dbtpfCallFunc
00001fb8 r dbtpfFuncDef
0004511c T dbtpn
00002248 r dbtpnArg0
00002250 r dbtpnArg1
000020fc r dbtpnArgs
0005bae8 t dbtpnCallFunc
000452e8 t dbtpnCallback
00001ff4 r dbtpnFuncDef
0004d0b0 T dbtr
00002200 r dbtrArg0
000020d8 r dbtrArgs
0005bc44 t dbtrCallFunc
00001fa0 r dbtrFuncDef
0001ecd8 t del
000b3b50 t delete
000479ec t deleteFromList
000023e0 r delta
000209cc t destroyAllChannels
000b68b8 t destroyExitPvt
00020d44 T destroy_client
00021378 T destroy_tcp_client
00000a60 D devAaiSoft
00000a7c D devAaoSoft
00000070 D devAiD212
00000d48 D devAiGeneralTime
00000a98 D devAiSoft
00000ab8 D devAiSoftRaw
00000090 D devAoD212
00000ad8 D devAoSoft
00000dec D devAoSoftCallback
00000af8 D devAoSoftRaw
00000038 D devBiD212
00000b18 D devBiSoft
00000b34 D devBiSoftRaw
00000054 D devBoD212
00000d68 D devBoGeneralTime
00000b50 D devBoSoft
00000e0c D devBoSoftCallback
00000b6c D devBoSoftRaw
00000b88 D devCalcoutSoft
00000e28 D devCalcoutSoftCallback
00000ba4 D devEventSoft
0005d8dc T devExtend
00000d84 D devLiGeneralTime
00000bc0 D devLiSoft
00000bdc D devLoSoft
00000e44 D devLoSoftCallback
00000bf8 D devMbbiDirectSoft
00000c14 D devMbbiDirectSoftRaw
00000c30 D devMbbiSoft
00000c4c D devMbbiSoftRaw
00000c68 D devMbboDirectSoft
00000e7c D devMbboDirectSoftCallback
00000c84 D devMbboDirectSoftRaw
00000ca0 D devMbboSoft
00000e60 D devMbboSoftCallback
00000cbc D devMbboSoftRaw
00000cd8 D devSASoft
00000da0 D devSiGeneralTime
00000cf4 D devSiSoft
00000d10 D devSoSoft
00000e98 D devSoSoftCallback
00000f1c d devSoStdio
00001738 D devSoft_DSXT
00000eb4 D devTimestampAI
00000ed4 D devTimestampSI
000000b0 D devWfD212
00000d2c D devWfSoft
000000cc D devXWf
0000172c D deviceSupport
0000007c r deviceSupportNames
000000e0 b devsl
000004c4 D dfanoutRSET
0000e484 t dfanoutRecordSizeOffset
         U difftime
00004d64 r digit_to_ascii
000042f0 r disconnectGovernorPeriod
000001a4 b dmaCount
0001fa24 t doCloseLinks
0001fdec t doInitRecord0
0001f5d4 t doInitRecord1
000204b8 t doRecordPini
0001fb2c t doResolveLinks
0005d618 t do_nothing
0000019c b done
00005138 b done
00001730 D driverSupport
00000030 d driverSupportNames
000000e8 D drvD212
00000198 b drvsl
00000ef4 d dsxtSoStdio
00003b18 b duplicate
000aaf4c T ellAdd
000aaf94 T ellConcat
000ab00c T ellDelete
000ab074 T ellExtract
000ab294 T ellFind
000ab2ec T ellFree2
000ab11c T ellGet
000ab164 T ellInsert
000ab238 T ellNStep
000ab1cc T ellNth
000ab360 T ellVerify
000abdbc T eltc
000050a4 r eltcArg0
00005038 r eltcArgs
000b1ba8 t eltcCallFunc
00004f8c r eltcFuncDef
000ab694 T envGetConfigParam
000ab500 T envGetConfigParamPtr
000aba1c T envGetDoubleConfigParam
000ab948 T envGetInetAddrConfigParam
000ab7fc T envGetInetPortConfigParam
000ab728 T envGetLongConfigParam
000ab564 T envPrtConfigParam
         U envShow
00001bf0 D env_param_list
000c18d8 T epicsAssert
000b6530 T epicsAtExit
000b64a4 t epicsAtExitPvt
000b673c T epicsAtThreadExit
000b632c T epicsConvertDoubleToFloat
00004880 b epicsDeadlockDetectMutexInit
000bbdf0 T epicsDeadlockDetectMutexInitFunc
000c2048 T epicsEnvSet
0000507c r epicsEnvSetArg0
00005084 r epicsEnvSetArg1
00005024 r epicsEnvSetArgs
000b1ce8 t epicsEnvSetCallFunc
00004f2c r epicsEnvSetFuncDef
000c1f8c T epicsEnvShow
0000508c r epicsEnvShowArg0
0000502c r epicsEnvShowArgs
000b1c60 t epicsEnvShowCallFunc
00004f50 r epicsEnvShowFuncDef
000c3c84 T epicsEventCreate
000c3c58 T epicsEventDestroy
000c3cc4 T epicsEventMustCreate
000c3a58 T epicsEventShow
000c3a84 T epicsEventTryWait
000c3aec T epicsEventWaitWithTimeout
000b6ae4 T epicsExit
000b69bc T epicsExitCallAtExits
000b681c t epicsExitCallAtExitsPvt
000b6910 T epicsExitCallAtThreadExits
000c1a3c T epicsFindSymbol
000c27ec T epicsGetStderr
000c2ac4 T epicsGetStdin
000c2844 T epicsGetStdout
000c26e4 T epicsGetThreadStderr
000c2794 T epicsGetThreadStdin
000c273c T epicsGetThreadStdout
000048c0 B epicsINF
000c1d40 T epicsInterruptContextMessage
000c1d84 T epicsInterruptIsInterruptContext
000c1ddc T epicsInterruptLock
000c1db0 T epicsInterruptUnlock
000c1b8c T epicsLoadError
000c1be8 T epicsLoadLibrary
000b7234 T epicsMemHash
000bc3a8 T epicsMutexDestroy
0000489c b epicsMutexGlobalLock
000bbeb4 T epicsMutexLock
000c3a28 T epicsMutexOsdCreate
000c39fc T epicsMutexOsdDestroy
000c3968 T epicsMutexOsdShow
000c3994 T epicsMutexOsdTryLock
000bc540 T epicsMutexOsiCreate
000bc958 T epicsMutexOsiMustCreate
000bc11c T epicsMutexShow
000bc1f4 T epicsMutexShowAll
000050e4 r epicsMutexShowAllArg0
000050ec r epicsMutexShowAllArg1
00005058 r epicsMutexShowAllArgs
000b1870 t epicsMutexShowAllCallFunc
00004fe0 r epicsMutexShowAllFuncDef
000bbf70 T epicsMutexTryLock
000bc038 T epicsMutexUnlock
000048bc B epicsNAN
000b1cbc t epicsParamShowCallFunc
00004f38 r epicsParamShowFuncDef
000ab630 T epicsPrtEnvParams
000b1c90 t epicsPrtEnvParamsCallFunc
00004f44 r epicsPrtEnvParamsFuncDef
000c2228 T epicsReadline
000c2374 T epicsReadlineBegin
000c21c8 T epicsReadlineEnd
000a7c24 T epicsRingPointerCreate
000a7bc4 T epicsRingPointerDelete
000a7b1c T epicsRingPointerFlush
000a7b2c T epicsRingPointerGetFree
000a7b50 T epicsRingPointerGetUsed
000a7b7c T epicsRingPointerIsEmpty
000a7b94 T epicsRingPointerIsFull
000a7a98 T epicsRingPointerPop
000a7ad8 T epicsRingPointerPush
000b6e00 T epicsScanDouble
000b6d8c T epicsScanFloat
000c2550 T epicsSetThreadStderr
000c2620 T epicsSetThreadStdin
000c25b8 T epicsSetThreadStdout
000047a8 b epicsSigletonOnceFlag
000c1f84 T epicsSignalInstallSigAlarmIgnore
000c1f7c T epicsSignalInstallSigHupIgnore
000c1f80 T epicsSignalInstallSigPipeIgnore
000c1f88 T epicsSignalRaiseSigAlarm
000c2b64 T epicsSnprintf
000c11f0 T epicsSocketAccept
000c1854 T epicsSocketConvertErrnoToString
000c122c T epicsSocketCreate
000c1164 T epicsSocketDestroy
000c12e4 T epicsSocketEnableAddressReuseDuringTimeWaitState
000c1268 T epicsSocketEnableAddressUseForDatagramFanout
000c184c T epicsSocketSystemCallInterruptMechanismQuery
000c2a38 T epicsStdoutPrintf
000c289c T epicsStdoutPutchar
000c29e0 T epicsStdoutPuts
000b6ee0 T epicsStrCaseCmp
000b7440 T epicsStrDup
000b6ffc T epicsStrGlobMatch
000b71a4 T epicsStrHash
000b72c8 T epicsStrPrintEscaped
000b6f60 T epicsStrnCaseCmp
000b74a8 T epicsStrnEscapedFromRaw
000b6e70 T epicsStrnEscapedFromRawSize
000b76a0 T epicsStrnRawFromEscaped
000b6b50 T epicsStrtod
000b70f8 T epicsStrtok_r
000bb398 T epicsThreadCallEntryPoint
000c34b8 T epicsThreadCreate
000c3204 T epicsThreadExitMain
000c3110 T epicsThreadGetId
000c30e4 T epicsThreadGetIdSelf
000c303c T epicsThreadGetName
000c30a8 T epicsThreadGetNameSelf
000c3348 T epicsThreadGetPriority
000c33cc T epicsThreadGetPrioritySelf
000c323c T epicsThreadGetStackSize
000c2c74 T epicsThreadHighestPriorityLevelBelow
000c2e54 t epicsThreadInit
000c2cb4 T epicsThreadIsEqual
000ba614 T epicsThreadIsOkToBlock
000c32a4 T epicsThreadIsSuspended
000c2c94 T epicsThreadLowestPriorityLevelAbove
00004874 B epicsThreadMainId
000ba4b8 T epicsThreadMustCreate
000c36fc T epicsThreadOnce
000ba5e0 t epicsThreadOnceIdInit
00005130 b epicsThreadOnceMutex
000c2f24 T epicsThreadPrivateCreate
000c2cc4 T epicsThreadPrivateDelete
000c2cc8 T epicsThreadPrivateGet
000c2d5c T epicsThreadPrivateSet
000c3408 T epicsThreadResume
000050fc r epicsThreadResumeArg0
00005064 r epicsThreadResumeArgs
000b1694 t epicsThreadResumeCallFunc
00004ff8 r epicsThreadResumeFuncDef
000ba538 T epicsThreadSetOkToBlock
000c32d0 T epicsThreadSetPriority
000c2fc4 T epicsThreadShow
000c3008 T epicsThreadShowAll
000050cc r epicsThreadShowAllArg0
0000504c r epicsThreadShowAllArgs
000b18d4 t epicsThreadShowAllCallFunc
00004fbc r epicsThreadShowAllFuncDef
000c3148 T epicsThreadSleep
000050f4 r epicsThreadSleepArg0
00005060 r epicsThreadSleepArgs
000b183c t epicsThreadSleepCallFunc
00004fec r epicsThreadSleepFuncDef
000c2d00 T epicsThreadSleepQuantum
000c3458 T epicsThreadSuspendSelf
000bee5c T epicsTimeAddSeconds
000be750 T epicsTimeDiffInSeconds
000be690 T epicsTimeEqual
000bf0c0 T epicsTimeFromTM
000bf194 T epicsTimeFromTime_t
000bf024 T epicsTimeFromTimespec
000bef88 T epicsTimeFromTimeval
000c0c64 T epicsTimeGetCurrent
000bfe3c T epicsTimeGetCurrentInt
000c0cc4 T epicsTimeGetEvent
000bfe9c T epicsTimeGetEventInt
000be3c8 T epicsTimeGreaterThan
000be310 T epicsTimeGreaterThanEqual
000be530 T epicsTimeLessThan
000be480 T epicsTimeLessThanEqual
000be5e0 T epicsTimeNotEqual
000bfcf8 T epicsTimeShow
000bf3e4 T epicsTimeToGMTM
000bfba0 T epicsTimeToStrftime
000bf65c T epicsTimeToTM
000be96c T epicsTimeToTime_t
000be8d0 T epicsTimeToTimespec
000be834 T epicsTimeToTimeval
000c3ebc T epicsTime_gmtime
000c3ef8 T epicsTime_localtime
000c5e00 T epicsTimerCancel
000c5f68 T epicsTimerGetExpireDelay
000c6d00 T epicsTimerQueueAllocate
000c60d4 T epicsTimerQueueCreateTimer
000c5d9c T epicsTimerQueueDestroyTimer
000c6578 T epicsTimerQueuePassiveCreate
000c61ec T epicsTimerQueuePassiveCreateTimer
000c5cb8 T epicsTimerQueuePassiveDestroy
000c5ce4 T epicsTimerQueuePassiveDestroyTimer
000c6128 T epicsTimerQueuePassiveProcess
000c5d14 T epicsTimerQueuePassiveShow
000c5d44 T epicsTimerQueueRelease
000c5d70 T epicsTimerQueueShow
000c5e30 T epicsTimerShow
000c5dcc T epicsTimerStartDelay
000c605c T epicsTimerStartTime
00003abc R epicsTypeToDBR_XXXX
000c2b1c T epicsVsnprintf
000acbb0 T errPrintf
0000455c r errStrs$2291
000ada48 T errSymBld
000adc78 T errSymDump
000adda4 T errSymLookup
00001c78 D errSymTbl
000ae198 T errSymTest
000ae05c T errSymTestPrint
000ad9cc T errSymbolAdd
000047b4 B errVerbose
000ad9a8 t errhash
000ac9f4 T errlogAddListener
000050c4 r errlogArg0
00005048 r errlogArgs
000b1b08 t errlogCallFunc
000abc04 T errlogFlush
00004fb0 r errlogFuncDef
000abe80 T errlogGetSevEnumString
000abe04 T errlogGetSevToLog
000abbd4 T errlogInit
000abae4 T errlogInit2
000050b4 r errlogInit2Arg0
000050bc r errlogInit2Arg1
00005040 r errlogInit2Args
000b1b44 t errlogInit2CallFunc
00004fa4 r errlogInit2FuncDef
000050ac r errlogInitArg0
0000503c r errlogInitArgs
000b1b78 t errlogInitCallFunc
00004f98 r errlogInitFuncDef
000abfb8 t errlogInitPvt
000ad968 T errlogMessage
000047b8 b errlogOnceFlag$2758
000ad748 T errlogPrintf
000ad45c T errlogPrintfNoConsole
000ac170 T errlogRemoveListener
000abe3c T errlogSetSevToLog
00001c60 D errlogSevEnumString
000ad10c T errlogSevPrintf
000acf4c T errlogSevVprintf
000ac324 t errlogThread
000ad538 T errlogVprintf
000ad334 T errlogVprintfNoConsole
00005108 b errmsg
0000481c b errnumlist
0001e4a4 t errorCount
0002e81c t eventCallback
00047358 t eventCallback
00053704 t eventCallback
0001e420 t eventProvider
00000514 D eventRSET
0000f418 t eventRecordSizeOffset
00027538 t event_add_action
00026d50 t event_cancel_reply
00048c44 t event_remove
00049008 t event_task
00024748 t events_off_action
00024714 t events_on_action
0002ed0c t exceptionCallback
00053fbc t exceptionCallback
0000c730 t execOutput
         U exit
000aefd0 t exitCallFunc
00003a8c b exitCallback
0001f768 t exitDatabase
000051b0 b exitEvent
00004eb0 r exitFuncDef
000ac750 t exitHandler
00002a94 b exitOnce
00004850 b exitPvtLock
0000484c b exitPvtOnce
000b6630 t exitPvtOnceFunc
00004858 b exitPvtPerThread
         U exp
000b48c4 t expand
00005180 b fList
000051a4 b fLock
         U fabs
00000564 D fanoutRSET
0000fb1c t fanoutRecordSizeOffset
         U fclose
         U fflush
         U fgets
00054ed4 t findBrkTable
000c0538 t findProvider
000605dc t finishOutstream
         U fioFormatV
000b3668 t first
000001a0 b firstCard
00000f54 d firstTime
00000f5c d firstTime
00002170 d firstTime
         U floor
         U fopen
00002858 r formlines
         U fpTypeGet
         U fprintf
         U fputc
         U fputs
00004d80 r frac_multiplier
         U free
00004890 b freeList
000ae518 T freeListCalloc
000ae248 T freeListCleanup
000ae2f0 T freeListFree
000ae57c T freeListInitPvt
000ae240 T freeListItemsAvail
000ae394 T freeListMalloc
000015f8 b freeListPvt
00003ae4 b freeListPvt
000c4b84 t freeNode
00001734 D function
00003ab0 b functionList
         U fwrite
000c061c T generalTimeAddIntCurrentProvider
000c0684 T generalTimeAddIntEventProvider
000bff08 T generalTimeCurrentProviderName
000bff24 T generalTimeEventProviderName
000bffe4 T generalTimeGetErrorCounts
000c0a5c T generalTimeGetExceptPriority
000bff40 T generalTimeHighestCurrentName
000c086c T generalTimeRegisterCurrentProvider
000c0944 T generalTimeRegisterEventProvider
000c007c T generalTimeReport
00005104 r generalTimeReportArg0
00005068 r generalTimeReportArgs
000b1664 t generalTimeReportCallFunc
00005004 r generalTimeReportFuncDef
000c0034 T generalTimeResetErrorCounts
000c082c T generalTime_Init
000c0f10 t generalTime_InitOnce
0005299c t getAttribEventCallback
000015ec T getCardStruct
0003c1a0 t getCharChar
0003c460 t getCharDouble
0003c4c8 t getCharEnum
0003c3f8 t getCharFloat
0003c338 t getCharLong
0003c278 t getCharShort
000417d0 t getCharString
0003c20c t getCharUchar
0003c398 t getCharUlong
0003c2d8 t getCharUshort
0001e4fc t getCurrentTime
0004377c t getDeviceString
0003dbf0 t getDoubleChar
0003dea8 t getDoubleDouble
0003df10 t getDoubleEnum
000408d4 t getDoubleFloat
0003ddc8 t getDoubleLong
0003dce8 t getDoubleShort
00040b34 t getDoubleString
0003dc6c t getDoubleUchar
0003de38 t getDoubleUlong
0003dd58 t getDoubleUshort
0003df80 t getEnumChar
0003e278 t getEnumDouble
0003e2e8 t getEnumEnum
0003e208 t getEnumFloat
0003e138 t getEnumLong
0003e068 t getEnumShort
00042b8c t getEnumString
0003dff4 t getEnumUchar
0003e1a0 t getEnumUlong
0003e0d0 t getEnumUshort
0003d7f0 t getFloatChar
0003db10 t getFloatDouble
0003db80 t getFloatEnum
0003daa8 t getFloatFloat
0003d9c8 t getFloatLong
0003d8e8 t getFloatShort
00040df0 t getFloatString
0003d86c t getFloatUchar
0003da38 t getFloatUlong
0003d958 t getFloatUshort
0003d050 t getLongChar
0003d348 t getLongDouble
0003d3b8 t getLongEnum
0003d2d8 t getLongFloat
0003d208 t getLongLong
0003d138 t getLongShort
00041220 t getLongString
0003d0c4 t getLongUchar
0003d270 t getLongUlong
0003d1a0 t getLongUshort
0004f53c t getMaxRangeValues
00043870 t getMenuString
00037608 t getOptions
000c2c60 t getOssPriorityValue
0003c8b0 t getShortChar
0003cba8 t getShortDouble
0003cc18 t getShortEnum
0003cb38 t getShortFloat
0003ca68 t getShortLong
0003c998 t getShortShort
00041404 t getShortString
0003c924 t getShortUchar
0003cad0 t getShortUlong
0003ca00 t getShortUshort
000429f4 t getStringChar
00043088 t getStringDouble
00042698 t getStringEnum
000434ec t getStringFloat
00042368 t getStringLong
000426c4 t getStringShort
00043964 t getStringString
0004285c t getStringUchar
00043218 t getStringUlong
00042500 t getStringUshort
0003c528 t getUcharChar
0003c7e8 t getUcharDouble
0003c850 t getUcharEnum
0003c780 t getUcharFloat
0003c6c0 t getUcharLong
0003c600 t getUcharShort
000415e8 t getUcharString
0003c594 t getUcharUchar
0003c720 t getUcharUlong
0003c660 t getUcharUshort
0003d420 t getUlongChar
0003d718 t getUlongDouble
0003d788 t getUlongEnum
0003d6a8 t getUlongFloat
0003d5d8 t getUlongLong
0003d508 t getUlongShort
0004103c t getUlongString
0003d494 t getUlongUchar
0003d640 t getUlongUlong
0003d570 t getUlongUshort
0003cc80 t getUshortChar
0003cf78 t getUshortDouble
0003cfe8 t getUshortEnum
0003cf08 t getUshortFloat
0003ce38 t getUshortLong
0003cd68 t getUshortShort
000406f0 t getUshortString
0003ccf4 t getUshortUchar
0003cea0 t getUshortUlong
0003cdd0 t getUshortUshort
00001704 T get_Work_Period
00003ef8 t get_alarm_double
00005360 t get_alarm_double
0000aa0c t get_alarm_double
0000bd40 t get_alarm_double
0000e9cc t get_alarm_double
000105f0 t get_alarm_double
000112ec t get_alarm_double
0001677c t get_alarm_double
0001a050 t get_alarm_double
00002714 t get_array_info
00003250 t get_array_info
0000795c t get_array_info
0000d9ac t get_array_info
0001afd8 t get_array_info
0001bbb4 t get_array_info
00002750 t get_control_double
0000328c t get_control_double
00004030 t get_control_double
00005484 t get_control_double
0000da20 t get_control_double
0000eb04 t get_control_double
00010678 t get_control_double
000113b0 t get_control_double
000168a0 t get_control_double
0001a188 t get_control_double
0001b034 t get_control_double
0001bbf0 t get_control_double
0000ab30 t get_ctrl_double
0000be64 t get_ctrl_double
00008c1c t get_enum_str
000098c8 t get_enum_str
00012690 t get_enum_str
00014398 t get_enum_str
00008b58 t get_enum_strs
00009804 t get_enum_strs
000125c4 t get_enum_strs
000142cc t get_enum_strs
000027c0 t get_graphic_double
000032fc t get_graphic_double
000040fc t get_graphic_double
00005540 t get_graphic_double
0000ac00 t get_graphic_double
0000bf34 t get_graphic_double
0000daac t get_graphic_double
0000ebd0 t get_graphic_double
0001071c t get_graphic_double
000114bc t get_graphic_double
00016970 t get_graphic_double
0001a254 t get_graphic_double
0001b16c t get_graphic_double
0001bc9c t get_graphic_double
00002830 t get_precision
0000336c t get_precision
000041bc t get_precision
000055fc t get_precision
00007830 t get_precision
000099cc t get_precision
0000acd0 t get_precision
0000c004 t get_precision
0000db38 t get_precision
0000ec90 t get_precision
00016a40 t get_precision
000179c0 t get_precision
0001a338 t get_precision
0001b2a4 t get_precision
0001bd48 t get_precision
0000287c t get_units
000033b8 t get_units
00004208 t get_units
00005660 t get_units
0000ad4c t get_units
0000c080 t get_units
0000db84 t get_units
0000ed40 t get_units
000107c0 t get_units
00011588 t get_units
00016ad8 t get_units
0001a3b4 t get_units
0001b320 t get_units
0001bdc4 t get_units
0000f7c4 t get_value
         U getcwd
         U getenv
         U gethostname
00061f00 t getpMessage
         U getpeername
         U getsockname
         U getsockopt
0005c40c T gft
00002230 r gftArg0
000020f0 r gftArgs
0005bb50 t gftCallFunc
00001fdc r gftFuncDef
00002a44 b globalLock
         U gmtime_r
000aec74 T gphAdd
000ae998 T gphDelete
000ae7ec T gphDump
000ae638 T gphDumpFP
000aeb18 T gphFind
000ae83c T gphFreeMem
000aee98 T gphInitPvt
00004840 b gphPvt
000048c8 b gtPvt
00004828 b hashtable
00004ee8 r helpArg0
00002150 d helpArgs
000af0f4 t helpCallFunc
00004ebc r helpFuncDef
000023cc r hex_digit_to_ascii
00004d70 r hex_digit_to_ascii
0001e44c t highestProvider
         U hostGetByAddr
         U hostGetByName
000c0fbc T hostToIPAddr
0002631c t host_name_action
00002a1c b id
000c4134 t ifreqNext
000c4110 t ifreqSize
         U inet_addr
000372e8 t inherit_severity
0001ed34 t init
00005170 b init$6685
0001ec98 t initAllow
000080cc t initFields
00054bf8 T initHookAnnounce
00054bb8 t initHookInit
00054b4c T initHookName
00054d80 t initHookOnce
00054dc0 T initHookRegister
000b5d70 t initIPAddr
00000dd4 t init_ai
0001e33c t init_ai
00000c88 t init_ao
00001140 t init_bi
00000f18 t init_bo
0001e240 t init_bo
00012490 t init_common
0001412c t init_common
0001e15c t init_li
00002c28 t init_record
00003770 t init_record
00004ad4 t init_record
00006254 t init_record
00008294 t init_record
00009128 t init_record
00009fd8 t init_record
0000b328 t init_record
0000d06c t init_record
0000dcdc t init_record
0000f360 t init_record
0000fa3c t init_record
000100ec t init_record
00010c6c t init_record
00011bbc t init_record
00012ccc t init_record
000137ec t init_record
00014b64 t init_record
000159fc t init_record
000172c4 t init_record
00017ee8 t init_record
00018dc8 t init_record
000197c0 t init_record
0001aa0c t init_record
0001b59c t init_record
0001c1d0 t init_record
0001c49c t init_record
0001c57c t init_record
0001c734 t init_record
0001c8b0 t init_record
0001c948 t init_record
0001cab8 t init_record
0001cc34 t init_record
0001cccc t init_record
0001cd28 t init_record
0001cea0 t init_record
0001d02c t init_record
0001d0f8 t init_record
0001d20c t init_record
0001d398 t init_record
0001d52c t init_record
0001d6b8 t init_record
0001d78c t init_record
0001d7e0 t init_record
0001d880 t init_record
0001d8d4 t init_record
0001dab0 t init_record
0001dbf8 t init_record
0001ddd8 t init_record
0001e040 t init_si
00000ab8 t init_wf
00000948 t init_xwf
00028900 T initializePutNotifyFreeList
00004818 b initialized
00003af8 b inputFileList
000c06ec t insertProvider
000c0a1c T installLastResortEventProvider
000b1638 t installLastResortEventProviderCallFunc
00005010 r installLastResortEventProviderFuncDef
         U intConnect
         U intContext
         U intEnable
000001a8 b intHasConnect
         U intLock
         U intUnlock
00001674 T int_Clear
00001640 T int_Disable
0000162c T int_Enable
00001654 T int_Enable_get
00002a50 B interruptAccept
0001febc T iocBuild
0001f414 t iocBuildCallFunc
0000021c r iocBuildFuncDef
00020450 T iocInit
0001f440 t iocInitCallFunc
00000210 r iocInitFuncDef
00004848 b iocLogClient
000b1f80 t iocLogClientInit
00004844 B iocLogDisable
00005094 r iocLogDisableArg0
00005030 r iocLogDisableArgs
000b13d4 t iocLogDisableCallFunc
00004f74 r iocLogDisableFuncDef
000b2210 T iocLogFlush
000b2160 T iocLogInit
000b1c08 t iocLogInitCallFunc
00004f68 r iocLogInitFuncDef
000b21cc T iocLogShow
0000509c r iocLogShowArg0
00005034 r iocLogShowArgs
000b1bd8 t iocLogShowCallFunc
00004f80 r iocLogShowFuncDef
0001f7ac T iocPause
0001f3bc t iocPauseCallFunc
00000234 r iocPauseFuncDef
0001f89c T iocRun
0001f3e8 t iocRunCallFunc
00000228 r iocRunFuncDef
000001bc b iocState
000b0ad8 T iocsh
000afd40 t iocshBody
000b0a64 T iocshCmd
00004ef0 r iocshCmdArg0
00002154 d iocshCmdArgs
000b0aa8 t iocshCmdCallFunc
00004ec8 r iocshCmdFuncDef
00002134 d iocshCmdID
00004830 b iocshCommandHead
000af494 T iocshFree
0000482c B iocshPpdbbase
000b0b38 T iocshRegister
0001f18c T iocshRegisterCommon
000b0ddc T iocshRegisterVariable
0001f30c t iocshSystemCommand
000aefd4 t iocshTableLock
00004838 b iocshTableMutex
000af05c t iocshTableOnce
00004834 b iocshTableOnceId
000af09c t iocshTableUnlock
00002140 d iocshVarID
0000483c b iocshVariableHead
         U ioctl
00047324 t ioeventCallback
00002a74 b iosl_head
000c162c T ipAddrToA
000b7be4 t ipAddrToAsciiEngineGlobalMutexConstruct
0000486c b ipAddrToAsciiEngineGlobalMutexOnceFlag
000b840c t ipAddrToAsciiEngineShutdownRequest
000c13b0 T ipAddrToDottedIP
000c103c T ipAddrToHostName
00000f4c d is_not_inited
         U isspace
0001f50c t iterateRecords
000c0c98 t lastResortGetEvent
00002a6c b last_lset
000037b4 b last_tabsize$4757
         U ledClose
         U ledOpen
         U ledRead
00000dd4 d li_channels
000b13e4 T libComRegister
000001e4 b line_num
00000f60 d line_num
00003ac0 b listLock
         U listen
         U loadModule
00004754 B localHostNameCache
         U localtime_r
00005134 b lock$5520
0000512c b lock$5690
00002a20 b lockSetList
00002a48 b lockSetModifyLock
         U log
         U log10
00026c54 t logBadIdWithFileAndLineno
000b2724 t logClientClose
000b231c T logClientCreate
000b2800 t logClientDestroy
000b2bdc T logClientFlush
000b2134 T logClientInit
000b2da0 t logClientRestart
000b3368 T logClientSend
000b1f44 T logClientSendMessage
000b2250 T logClientShow
         U logMsg
0001ee50 t logPrintf
00025114 t log_header
00021a00 t log_one_client
000005b4 D longinRSET
00010130 t longinRecordSizeOffset
00000604 D longoutRSET
00010ddc t longoutRecordSizeOffset
000b38ac t lookup
000051ac b loopEvent
00002a60 b lset_stack
00002a58 B lset_stack_count
00005174 b mList
000051a0 b mLock
000b4e54 T macCreateHandle
000b3d4c T macDeleteHandle
000b5208 T macEnvExpand
000b4cb0 T macExpandString
000b4ffc T macGetValue
000015fc b macHandle
00003ae8 b macHandle
000b5394 T macInstallMacros
000b550c T macParseDefns
000b3c00 T macPopScope
000b3a54 T macPushScope
000b3e84 T macPutValue
000b4a84 T macReportMacros
000b3628 T macSuppressWarning
00001600 b mac_input_buffer
00003aec b mac_input_buffer
00003ad0 B makeDbdDepends
         U malloc
000b60ec T mallocMustSucceed
00001ad8 r mapDBFToDBR
000028d4 r mapDBFtoDCT
000006a4 D mbbiDirectRSET
00012e68 t mbbiDirectRecordSizeOffset
00000654 D mbbiRSET
00011d40 t mbbiRecordSizeOffset
00000744 D mbboDirectRSET
00014dfc t mbboDirectRecordSizeOffset
000006f4 D mbboRSET
0001398c t mbboRecordSizeOffset
         U memFindMax
         U memcmp
         U memcpy
         U memmove
         U memset
0001f268 T miscIocRegister
         U mktime
00003978 b msg_Buff$4224
00003898 b msg_Buff$4274
000037b8 b msg_Buff$4309
000036d4 b msg_Buff$4368
000ac8ac t msgbufGetFree
000abedc t msgbufGetNode
000ac830 t msgbufSetSize
00001a70 r msstring
00002848 r msstring
00004884 b mutexList
0001f0b4 t myCallback
0000a210 t myCallbackFunc
00032230 t myInputFunction
0002cc08 t myMemberCallback
00001634 b my_buffer
00003ae0 b my_buffer
00001638 b my_buffer_ptr
00003af4 b my_buffer_ptr
000029f0 b my_yyinput
00002a80 b nPeriodic
0004ac20 t nameToAddr
00005128 b nepicsThreadPrivate
000c4c2c t newNode
000016f0 d newOverflow$4477
000b3670 t next
00004760 B noopIIU
00050234 t notify
00046950 t notifyCallback
00005520 r okToBlockNo
00004878 b okToBlockOnce
00004870 B okToBlockPrivate
0000551c r okToBlockYes
00005104 b oldmsg
000c2688 t once
00003abc b onceFlag$2136
000048c4 b onceId
00005114 b onceId
000051c0 b onceId
00005208 b onceId
00002a8c b onceQ
000016ec d onceQueueSize
00002a88 b onceSem
000482f4 t onceTask
00002a90 b onceTaskId
00004418 r opcodes$2298
         U open
00068adc t openOutstream
000af640 t openRedirect
00004594 r operands
00004954 r operators
0000510c b osdMaxBlockOnceler
00005110 b osdMaxBlockSize
000c3fe4 T osdNTPGet
000c3f34 T osdNTPInit
000c3d44 T osdNTPReport
000c1ec4 t osdSufficentSpaceInPoolInit
000c1f30 t osdSufficentSpaceInPoolPoll
000c1e84 t osdSufficentSpaceInPoolQuery
000c4050 T osiGetUserName
000c4170 T osiLocalAddr
000c0fb0 T osiSockAttach
000c449c T osiSockDiscoverBroadcastAddresses
000c0fb8 T osiSockRelease
000c4048 T osiSpawnDetachedProcess
000c1e08 T osiSufficentSpaceInPool
000c2bc8 t outRoutine
00000efc d outStreams
0000472c b pCACChannelPrivate
00000004 C pCaBucket
0000487c b pCurrentMutexLevel
000047a4 b pEPICSSigletonMutex
00005524 r pEpicsTimeVersion
000055a0 r pErrStr$6600
0000559c r pErrStr$6650
00004854 b pExitPvtPerProcess
00002844 r pNullString
00003f90 r pVersionCAC
000015c0 b pacf
00002160 d pairs$2102
00001740 D pamapdbfType
00001808 D pamapguiGroup
000018d0 D pamaplinkType
000017c0 D pamapspcType
00002a98 b papPeriodic
00005124 b papTSD
00002a14 b pasTrapWritePvt
000015f0 B pasbase
00001604 b pasbasenew
         U pciConfigInByte
         U pciConfigInLong
         U pciFindDevice
00003adc b pdbbase
00002a4c B pdbbase
000047b0 b pdbmfPvt
0004892c t periodicTask
00002a9c b periodicTaskId
00000794 D permissiveRSET
00015bf0 t permissiveRecordSizeOffset
00002aa0 b pevent_list
0005c68c T pft
00002238 r pftArg0
00002240 r pftArg1
000020f4 r pftArgs
0005bb1c t pftCallFunc
00001fe8 r pftFuncDef
0001f61c t piniProcess
0001f6a0 t piniProcessHook
00003af0 b pinputFileNow
0000189c T plx9656Init
00002a70 b pnotifyGlobal
0006a7d4 t popFirstTemp
0004738c T post_event
000a7e44 T postfix
         U pow
000028c0 r ppstring
000023f0 r precision
0004b26c t printBuffer
000710d8 T printChannelAccessAddressList
00047478 t printList
         U printf
00001af8 r priorityName
000016f8 d priorityValue
0000292c t process
00003468 t process
0000439c t process
00005c24 t process
00007c50 t process
00008d20 t process
00009b90 t process
0000aeb0 t process
0000c8d0 t process
0000dd54 t process
0000ed80 t process
0000f7e4 t process
0000fef8 t process
00010800 t process
0001172c t process
00012878 t process
00013488 t process
0001478c t process
00015660 t process
00015f80 t process
00016b18 t process
00017bfc t process
000185dc t process
00018ac8 t process
000194bc t process
0001a510 t process
0001b3d0 t process
0001be74 t process
00018040 t processCallback
00017adc t processNextLink
00001988 d promptAB_IO
0000288c r promptAddr
000019c0 d promptBBGPIB_IO
000019a8 d promptBITBUS_IO
00001970 d promptCAMAC_IO
00001940 d promptCONSTANT
0000195c d promptFWDLINK
0000199c d promptGPIB_IO
00001944 d promptINLINK
000019bc d promptINST_IO
00001950 d promptOUTLINK
000019d0 d promptRF_IO
00001964 d promptVME_IO
000019e0 d promptVXI_IO
00000004 C prsrv_cast_client
0000513c b pserverAddr
000015c8 b psubstitutions
00003ac8 b pthisDevSup
0005083c t putCallback
0003e350 t putCharChar
0003e638 t putCharDouble
0003e6a8 t putCharEnum
0003e5c8 t putCharFloat
0003e4f8 t putCharLong
0003e428 t putCharShort
000416d0 t putCharString
0003e3bc t putCharUchar
0003e560 t putCharUlong
0003e490 t putCharUshort
0003fdc0 t putDoubleChar
00040068 t putDoubleDouble
000400d0 t putDoubleEnum
000407dc t putDoubleFloat
0003ff88 t putDoubleLong
0003fea8 t putDoubleShort
000409cc t putDoubleString
0003fe34 t putDoubleUchar
0003fff8 t putDoubleUlong
0003ff18 t putDoubleUshort
00040140 t putEnumChar
00040428 t putEnumDouble
00040498 t putEnumEnum
000403b8 t putEnumFloat
000402e8 t putEnumLong
00040218 t putEnumShort
00040500 t putEnumString
000401ac t putEnumUchar
00040350 t putEnumUlong
00040280 t putEnumUshort
0003f9d0 t putFloatChar
0003fce0 t putFloatDouble
0003fd50 t putFloatEnum
0003fc78 t putFloatFloat
0003fb98 t putFloatLong
0003fab8 t putFloatShort
00040c90 t putFloatString
0003fa44 t putFloatUchar
0003fc08 t putFloatUlong
0003fb28 t putFloatUshort
0003f250 t putLongChar
0003f538 t putLongDouble
0003f5a8 t putLongEnum
0003f4c8 t putLongFloat
0003f3f8 t putLongLong
0003f328 t putLongShort
00041128 t putLongString
0003f2bc t putLongUchar
0003f460 t putLongUlong
0003f390 t putLongUshort
000455a8 t putNotifyCleanup
00046098 t putNotifyCommon
0005a138 T putNotifyCompletion
00023cc4 t putNotifyErrorReply
00062424 t putParmString
00062118 t putPvLink
0003ead0 t putShortChar
0003edb8 t putShortDouble
0003ee28 t putShortEnum
0003ed48 t putShortFloat
0003ec78 t putShortLong
0003eba8 t putShortShort
0004130c t putShortString
0003eb3c t putShortUchar
0003ece0 t putShortUlong
0003ec10 t putShortUshort
00041e9c t putStringChar
00042010 t putStringDevice
00042dd8 t putStringDouble
00042c44 t putStringEnum
00043398 t putStringFloat
000418c0 t putStringLong
000421b8 t putStringMenu
00041bb0 t putStringShort
0004366c t putStringString
00041d28 t putStringUchar
00042f2c t putStringUlong
00041a38 t putStringUshort
0003e710 t putUcharChar
0003e9f8 t putUcharDouble
0003ea68 t putUcharEnum
0003e988 t putUcharFloat
0003e8b8 t putUcharLong
0003e7e8 t putUcharShort
000414f0 t putUcharString
0003e77c t putUcharUchar
0003e920 t putUcharUlong
0003e850 t putUcharUshort
0003f610 t putUlongChar
0003f8f8 t putUlongDouble
0003f968 t putUlongEnum
0003f888 t putUlongFloat
0003f7b8 t putUlongLong
0003f6e8 t putUlongShort
00040f44 t putUlongString
0003f67c t putUlongUchar
0003f820 t putUlongUlong
0003f750 t putUlongUshort
0003ee90 t putUshortChar
0003f178 t putUshortDouble
0003f1e8 t putUshortEnum
0003f108 t putUshortFloat
0003f038 t putUshortLong
0003ef68 t putUshortShort
000405f8 t putUshortString
0003eefc t putUshortUchar
0003f0a0 t putUshortUlong
0003efd0 t putUshortUshort
00002730 t put_array_info
0000326c t put_array_info
0000786c t put_array_info
0000d9e4 t put_array_info
0001b018 t put_array_info
0001bbd0 t put_array_info
00008ac0 t put_enum_str
00009764 t put_enum_str
000124e0 t put_enum_str
000141f8 t put_enum_str
0000d8ec t put_value
         U putenv
         U puts
000000f4 D pvar_drvet_drvD212
00000a78 D pvar_dset_devAaiSoft
00000a94 D pvar_dset_devAaoSoft
0000008c D pvar_dset_devAiD212
00000d64 D pvar_dset_devAiGeneralTime
00000ab4 D pvar_dset_devAiSoft
00000ad4 D pvar_dset_devAiSoftRaw
000000ac D pvar_dset_devAoD212
00000af4 D pvar_dset_devAoSoft
00000e08 D pvar_dset_devAoSoftCallback
00000b14 D pvar_dset_devAoSoftRaw
00000050 D pvar_dset_devBiD212
00000b30 D pvar_dset_devBiSoft
00000b4c D pvar_dset_devBiSoftRaw
0000006c D pvar_dset_devBoD212
00000d80 D pvar_dset_devBoGeneralTime
00000b68 D pvar_dset_devBoSoft
00000e24 D pvar_dset_devBoSoftCallback
00000b84 D pvar_dset_devBoSoftRaw
00000ba0 D pvar_dset_devCalcoutSoft
00000e40 D pvar_dset_devCalcoutSoftCallback
00000bbc D pvar_dset_devEventSoft
00000d9c D pvar_dset_devLiGeneralTime
00000bd8 D pvar_dset_devLiSoft
00000bf4 D pvar_dset_devLoSoft
00000e5c D pvar_dset_devLoSoftCallback
00000c10 D pvar_dset_devMbbiDirectSoft
00000c2c D pvar_dset_devMbbiDirectSoftRaw
00000c48 D pvar_dset_devMbbiSoft
00000c64 D pvar_dset_devMbbiSoftRaw
00000c80 D pvar_dset_devMbboDirectSoft
00000e94 D pvar_dset_devMbboDirectSoftCallback
00000c9c D pvar_dset_devMbboDirectSoftRaw
00000cb8 D pvar_dset_devMbboSoft
00000e78 D pvar_dset_devMbboSoftCallback
00000cd4 D pvar_dset_devMbboSoftRaw
00000cf0 D pvar_dset_devSASoft
00000db8 D pvar_dset_devSiGeneralTime
00000d0c D pvar_dset_devSiSoft
00000d28 D pvar_dset_devSoSoft
00000eb0 D pvar_dset_devSoSoftCallback
00000ef0 D pvar_dset_devSoStdio
00000ed0 D pvar_dset_devTimestampAI
00000eec D pvar_dset_devTimestampSI
000000c8 D pvar_dset_devWfD212
00000d44 D pvar_dset_devWfSoft
000000e4 D pvar_dset_devXWf
00000238 D pvar_func_aSubRecordSizeOffset
000000f8 D pvar_func_aaiRecordSizeOffset
00000148 D pvar_func_aaoRecordSizeOffset
00000198 D pvar_func_aiRecordSizeOffset
000001e8 D pvar_func_aoRecordSizeOffset
00000f34 D pvar_func_asSub
00000330 D pvar_func_biRecordSizeOffset
00000380 D pvar_func_boRecordSizeOffset
000003d0 D pvar_func_calcRecordSizeOffset
00000420 D pvar_func_calcoutRecordSizeOffset
00000470 D pvar_func_compressRecordSizeOffset
000004c0 D pvar_func_dfanoutRecordSizeOffset
00000510 D pvar_func_eventRecordSizeOffset
00000560 D pvar_func_fanoutRecordSizeOffset
00000f48 D pvar_func_iocshSystemCommand
000005b0 D pvar_func_longinRecordSizeOffset
00000600 D pvar_func_longoutRecordSizeOffset
000006a0 D pvar_func_mbbiDirectRecordSizeOffset
00000650 D pvar_func_mbbiRecordSizeOffset
00000740 D pvar_func_mbboDirectRecordSizeOffset
000006f0 D pvar_func_mbboRecordSizeOffset
00000790 D pvar_func_permissiveRecordSizeOffset
000007e0 D pvar_func_selRecordSizeOffset
00000830 D pvar_func_seqRecordSizeOffset
00000880 D pvar_func_stateRecordSizeOffset
000008d0 D pvar_func_stringinRecordSizeOffset
00000920 D pvar_func_stringoutRecordSizeOffset
000009c0 D pvar_func_subArrayRecordSizeOffset
00000970 D pvar_func_subRecordSizeOffset
00000a10 D pvar_func_waveformRecordSizeOffset
00000f58 D pvar_int_asCaDebug
000019fc D pvar_int_dbBptNotMonotonic
000019f8 D pvar_int_dbRecordsOnceOnly
00000284 D pvar_rset_aSubRSET
00000144 D pvar_rset_aaiRSET
00000194 D pvar_rset_aaoRSET
000001e4 D pvar_rset_aiRSET
00000234 D pvar_rset_aoRSET
0000037c D pvar_rset_biRSET
000003cc D pvar_rset_boRSET
0000041c D pvar_rset_calcRSET
0000046c D pvar_rset_calcoutRSET
000004bc D pvar_rset_compressRSET
0000050c D pvar_rset_dfanoutRSET
0000055c D pvar_rset_eventRSET
000005ac D pvar_rset_fanoutRSET
000005fc D pvar_rset_longinRSET
0000064c D pvar_rset_longoutRSET
000006ec D pvar_rset_mbbiDirectRSET
0000069c D pvar_rset_mbbiRSET
0000078c D pvar_rset_mbboDirectRSET
0000073c D pvar_rset_mbboRSET
000007dc D pvar_rset_permissiveRSET
0000082c D pvar_rset_selRSET
0000087c D pvar_rset_seqRSET
000008cc D pvar_rset_stateRSET
0000091c D pvar_rset_stringinRSET
0000096c D pvar_rset_stringoutRSET
00000a0c D pvar_rset_subArrayRSET
000009bc D pvar_rset_subRSET
00000a5c D pvar_rset_waveformRSET
000047bc b pvtData
000b1d68 t pwdCallFunc
00004f20 r pwdFuncDef
         U qsort
000b373c t rawval
0000064c T rcsRfIoc_registerRecordDeviceDriver
         U read
0001c3c8 t read_aai
00028578 t read_action
00001380 t read_ai
0001c5f4 t read_ai
0001c800 t read_ai
0001de50 t read_ai
0001eb90 t read_ai
0000152c t read_bi
0001c9f8 t read_bi
0001cb84 t read_bi
0001cdd8 t read_event
0001df40 t read_li
0001cf6c t read_longin
0001d14c t read_mbbi
0001d2d8 t read_mbbi
0001d46c t read_mbbi
0001d5f8 t read_mbbi
00028448 t read_notify_action
00024bfc t read_reply
0001d964 t read_sa
0001df8c t read_si
0001db28 t read_stringin
0001ec00 t read_stringin
000233ec t read_sync_reply
000009d0 t read_wf
0001dd18 t read_wf
00000810 t read_xwf
0005dc80 t realToString
         U realloc
00003a58 B recGblAlarmHook
0004fde0 T recGblDbaddrError
0004f894 T recGblFwdLink
0004f51c T recGblGetAlarmDouble
0004f654 T recGblGetControlDouble
0004f68c T recGblGetGraphicDouble
0004f4c8 T recGblGetPrec
0004f770 T recGblGetTimeStamp
0004fa48 T recGblInitConstantLink
0004fc20 T recGblRecSupError
0004fd54 T recGblRecordError
0004f920 T recGblResetAlarms
0004f6c4 T recGblTSELwasModified
00001728 D recordType
0000000c r recordTypeNames
         U recv
         U recvfrom
00013394 t refresh_bits
0005d1c4 T registerDevices
0005d0d8 T registerDrivers
00000134 r registerRecordDeviceDriverArg0
00000034 d registerRecordDeviceDriverArgs
000007c0 t registerRecordDeviceDriverCallFunc
00000000 r registerRecordDeviceDriverFuncDef
0005d2b0 T registerRecordTypes
000b12bc T registryAdd
000b1214 T registryChange
0005ce88 T registryDeviceSupportAdd
0005ce50 T registryDeviceSupportFind
0005d578 t registryDeviceSupportFindCallFunc
000022bc r registryDeviceSupportFindFuncDef
0005cf00 T registryDriverSupportAdd
0005cec8 T registryDriverSupportFind
0005d528 t registryDriverSupportFindCallFunc
000022c8 r registryDriverSupportFindFuncDef
000b1020 T registryDump
000b1c34 t registryDumpCallFunc
00004f5c r registryDumpFuncDef
000b1128 T registryFind
000b1064 T registryFree
0005cf40 T registryFunctionAdd
0005d048 T registryFunctionFind
0005d4d8 t registryFunctionFindCallFunc
000022d4 r registryFunctionFindFuncDef
0005cf80 T registryFunctionRefAdd
000022a0 r registryID
000022a4 r registryID
000022a8 r registryID
000022ac r registryID
000b10a4 t registryInit
0005d44c T registryIocRegister
0005ce10 T registryRecordTypeAdd
0005cdd8 T registryRecordTypeFind
0005d5c8 t registryRecordTypeFindCallFunc
000022b0 r registryRecordTypeFindFuncDef
000b1364 T registrySetTableSize
000022e4 r registryXxxFindArg0
000022e0 r registryXxxFindArgs
         U remCurIdGet
00071198 T removeDuplicateAddresses
00003a90 b removesOutstanding
000042f8 r repeaterSubscribeTimerPeriod
00022570 t req_server
0000dbc4 t reset
0001e4d0 t resetErrors
00045600 t restartCheck
00001e50 r rights$4352
00003a78 b ringOverflow
00048b24 t ringSpace
00000004 C rsrvChanFreeList
00000004 C rsrvChannelCount
000232b8 T rsrvCheckPut
00000004 C rsrvClientFreeList
00000004 C rsrvCurrentClient
00000004 C rsrvEventFreeList
00023f9c T rsrvFreePutNotify
00029854 T rsrvGetUInt16
00029798 T rsrvGetUInt32
00029718 T rsrvIocRegister
00000004 C rsrvLargeBufFreeListTCP
00000004 C rsrvPutNotifyFreeList
0002325c T rsrvSizeOfPutNotify
00000004 C rsrvSizeofLargeBufTCP
00000004 C rsrvSmallBufFreeListTCP
00028988 T rsrv_extra_labor
00022254 T rsrv_init
00028dec T rsrv_online_notify_task
0002058c T rsrv_pause
00020568 T rsrv_run
000232f8 T rsrv_version_reply
00000000 b rtl
00047f0c T scanAdd
00000004 C scanCtl
00047b58 T scanDelete
000484b4 T scanInit
00046f44 T scanIoInit
00046ec8 T scanIoRequest
0004704c t scanList
00046db4 T scanOnce
00046da4 T scanOnceSetQueueSize
00002280 r scanOnceSetQueueSizeArg0
00002118 r scanOnceSetQueueSizeArgs
0005b9f4 t scanOnceSetQueueSizeCallFunc
00002030 r scanOnceSetQueueSizeFuncDef
00046cc8 T scanPause
00046d20 T scanPeriod
00046c74 T scanRun
000481e8 t scanShutdown
00047718 T scanpel
00002290 r scanpelArg0
00002120 r scanpelArgs
0005b990 t scanpelCallFunc
00002048 r scanpelFuncDef
00047630 T scanpiol
0005b964 t scanpiolCallFunc
00002054 r scanpiolFuncDef
00047878 T scanppl
00002288 r scanpplArg0
0000211c r scanpplArgs
0005b9c0 t scanpplCallFunc
0000203c r scanpplFuncDef
00023b90 t search_fail_reply
00025298 t search_reply_tcp
00025580 t search_reply_udp
00001bec d seed
000007e4 D selRSET
00016084 t selRecordSizeOffset
         U semBCreate
         U semDelete
         U semGive
         U semMCreate
         U semShow
         U semTake
         U send
000248fc t send_err
         U sendto
00000834 D seqRSET
000001b8 B seqRecDebug
000173ac t seqRecordSizeOffset
00065f68 t setLinkType
00001688 T set_Sweep_Option
000016d0 T set_Work_Period
         U setsockopt
00021850 t showChanList
000af540 t showError
         U shutdown
00000dbc d si_channels
         U sin
         U sinh
00001ab0 r size$4668
         U sntpcTimeGet
000c1360 T sockAddrAreIdentical
000c1724 T sockAddrToA
000c1500 T sockAddrToDottedIP
         U socket
00002a54 b spcAsCallback
00004248 t special
000056a0 t special
00007b94 t special
0000ad8c t special
0000c174 t special
0000dc4c t special
00012768 t special
00014518 t special
00015388 t special
0001a3f4 t special
         U sprintf
         U sqrt
         U sscanf
000055a4 r stackSizeTable
000af958 t startRedirect
00002a84 b startStopEvent
00003a88 b startStopEvent
00003aac b startStopEvent
00000884 D stateRSET
0001827c t stateRecordSizeOffset
0001eebc t stderrPrintf
00005120 b stderrThreadPrivateId
00005118 b stdinThreadPrivateId
0000511c b stdoutThreadPrivateId
000af7ac t stopRedirect
         U strcat
         U strchr
         U strcmp
         U strcpy
0000163c b stream
         U strerror
         U strftime
000008d4 D stringinRSET
000186e0 t stringinRecordSizeOffset
00000924 D stringoutRSET
00018f40 t stringoutRecordSizeOffset
         U strlen
         U strncmp
         U strncpy
         U strrchr
         U strspn
         U strstr
         U strtod
         U strtol
         U strtoul
000009c4 D subArrayRSET
0001abc0 t subArrayRecordSizeOffset
00000974 D subRSET
0001994c t subRecordSizeOffset
000001cc b sub_collect
000001ec b sub_count
         U symFindByName
00001c7c d symTbl
00001c84 d symbols
         U sysBootLine
         U sysClkRateGet
         U sysInLong
         U sysOutByte
         U sysOutLong
         U sysSymTbl
         U system
00000250 r systemArg0
0000024c r systemArgs
0001f238 t systemCallFunc
00000204 r systemFuncDef
0000518c b tList
0000519c b tLock
         U tan
         U tanh
         U taskDelay
         U taskIdSelf
         U taskIsSuspended
         U taskName
         U taskNameToId
         U taskPriorityGet
         U taskPrioritySet
         U taskResume
         U taskShow
         U taskSpawn
         U taskSuspend
         U taskVarAdd
         U taskVarDelete
000c4fb4 T taskwdAnyInsert
000c4e20 T taskwdAnyRemove
000c4de0 T taskwdInit
000c55a4 T taskwdInsert
000c524c T taskwdMonitorAdd
000c50d8 T taskwdMonitorDel
000c533c T taskwdRemove
000c490c T taskwdShow
000050dc r taskwdShowArg0
00005054 r taskwdShowArgs
000b18a4 t taskwdShowCallFunc
00004fd4 r taskwdShowFuncDef
000002d0 r tcpJumpTable
000237ec t tcp_echo_action
0002477c t tcp_version_action
00003b1c b tempList
000050d4 r threadArg0
00005050 r threadArgs
000b1904 t threadCallFunc
00004fc8 r threadFuncDef
00001e38 r threadName
00005138 b threadOnceComplete$5538
00001e44 r threadPriority
000015d4 b threadid
         U tickGet
0001e478 t timeProvider
00003a84 b timerQueue
000051b4 B timerQueueMgrEPICS
00004e7c r tmsg$2481
0005c028 T tpn
00002258 r tpnArg0
00002260 r tpnArg1
00002104 r tpnArgs
0005ba88 t tpnCallFunc
0005c354 t tpnCallback
0000200c r tpnFuncDef
00046894 t tpnThread
0005c298 t tpnThread
000b40a4 t trans
000acb20 t tvsnPrint
000051a8 b twdCtl
000c5764 t twdInitOnce
00005198 b twdOnceFlag$2395
000c58e4 t twdShutdown
000c5940 t twdTask
00000260 r udpJumpTable
00023964 t udp_echo_action
0002327c t udp_version_action
0005dbb4 t ulongToHexString
00001c70 d unknown$2620
00000d90 r unknown$3912
000afc34 t varCallFunc
00004ef8 r varCmdArg0
00004f00 r varCmdArg1
00002158 d varCmdArgs
00004ed4 r varFuncDef
000afa88 t varHandler
000001e8 b var_count
00000000 d vardefs
000001c8 b vars
         U vfprintf
         U vxTas
00000a14 D waveformRSET
0001b73c t waveformRecordSizeOffset
0002d204 t wdCallback
000007f8 t wfget_ioint_info
00003a94 b workList
00003aa4 b workListEvent
00003aa0 b workListLock
00005ac0 t writeValue
00009a2c t writeValue
0000c0c0 t writeValue
000115c8 t writeValue
00014628 t writeValue
000154fc t writeValue
00019358 t writeValue
0001c514 t write_aao
000280dc t write_action
000012dc t write_ao
0001c950 t write_ao
0001c9a4 t write_ao
0001e570 t write_ao
0000142c t write_bo
0001ccd4 t write_bo
0001cd30 t write_bo
0001df04 t write_bo
0001e650 t write_bo
0001cd84 t write_calcout
0001e730 t write_calcout
0001d100 t write_longout
0001e810 t write_longout
0001d794 t write_mbbo
0001d820 t write_mbbo
0001d888 t write_mbbo
0001d904 t write_mbbo
0001e8f0 t write_mbbo
0001e9d0 t write_mbbo
0002795c t write_notify_action
00023e08 t write_notify_call_back
0001ece8 t write_string
0001dcc4 t write_stringout
0001eab0 t write_stringout
00003b04 b yyAbort
00001624 b yyAsg
00001628 b yyAsgRule
0000160c b yyFailed
00003b08 b yyFailed
00001620 b yyHag
0000161c b yyUag
00000b84 r yy_accept
000017e0 r yy_accept
000034d4 r yy_accept
00000c2e r yy_base
000018a4 r yy_base
000036ec r yy_base
000001d8 b yy_c_buf_p
00001614 b yy_c_buf_p
00003b10 b yy_c_buf_p
00000c7c r yy_chk
000018fc r yy_chk
000037ea r yy_chk
0002af90 t yy_create_buffer
000325d0 t yy_create_buffer
0006a480 t yy_create_buffer
000015a0 b yy_current_buffer
000029f4 b yy_current_buffer
00004700 b yy_current_buffer
00000bca r yy_def
00001832 r yy_def
000035ca r yy_def
000015bc b yy_did_buffer_switch_on_eof
00002a10 b yy_did_buffer_switch_on_eof
0000471c b yy_did_buffer_switch_on_eof
00000a84 r yy_ec
000016e0 r yy_ec
000033d4 r yy_ec
0002acec t yy_get_previous_state
0002f33c t yy_get_previous_state
00069e5c t yy_get_previous_state
000015a4 b yy_hold_char
000029f8 b yy_hold_char
00004704 b yy_hold_char
00000f50 d yy_init
00000f68 d yy_init
00001a04 d yy_init
0002ae6c t yy_init_buffer
0002f4d0 t yy_init_buffer
00069fdc t yy_init_buffer
000015b8 b yy_last_accepting_cpos
00002a0c b yy_last_accepting_cpos
00004718 b yy_last_accepting_cpos
000015b4 b yy_last_accepting_state
00002a08 b yy_last_accepting_state
00004714 b yy_last_accepting_state
0002ae28 t yy_load_buffer_state
0002f48c t yy_load_buffer_state
00069f98 t yy_load_buffer_state
00000c18 r yy_meta
0000188c r yy_meta
000036c8 r yy_meta
000015a8 b yy_n_chars
000029fc b yy_n_chars
00004708 b yy_n_chars
00000d06 r yy_nxt
000019b6 r yy_nxt
00003946 r yy_nxt
000001dc b yy_start
00001610 b yy_start
00003b0c b yy_start
000001f8 b yychar
00001648 b yychar
00003b34 b yychar
0000050c r yycheck
000010e8 r yycheck
00002ccc r yycheck
00000428 r yydefred
00000f90 r yydefred
00002a50 r yydefred
00000a62 r yydgoto
000016aa r yydgoto
00003392 r yydgoto
000001f4 b yyerrflag
00001644 b yyerrflag
00003b30 b yyerrflag
0002aeb0 t yyerror
00032198 t yyerror
0006a020 t yyerror
0006a844 t yyerrorAbort
00000a42 r yygindex
00001674 r yygindex
00003352 r yygindex
000001d0 b yyin
00001618 b yyin
00003b14 b yyin
000009b6 r yylen
000015c0 r yylen
00003256 r yylen
000015b0 b yyleng
00002a04 b yyleng
00004710 b yyleng
0002b2e4 t yylex
000328d4 t yylex
0006b808 t yylex
000009fc r yylhs
0000161a r yylhs
000032d4 r yylhs
00000210 b yylval
00001660 b yylval
00003b44 b yylval
000001f0 b yynerrs
00001640 b yynerrs
00003b2c b yynerrs
000001e0 b yyout
0000162c b yyout
00003b28 b yyout
0006c650 t yyparse
00000944 r yyrindex
00001514 r yyrindex
00003118 r yyrindex
0000049a r yysindex
0000103c r yysindex
00002b8e r yysindex
00000218 b yyss
00001668 b yyss
00003b48 b yyss
000001fc b yyssp
0000164c b yyssp
00003b38 b yyssp
00000728 r yytable
000012fe r yytable
00002ef2 r yytable
000015ac b yytext
00002a00 b yytext
0000470c b yytext
00000208 b yyval
00001658 b yyval
00003b40 b yyval
00000600 b yyvs
00001a50 b yyvs
00003f30 b yyvs
00000200 b yyvsp
00001650 b yyvsp
00003b3c b yyvsp
0005f060 t zeroDbentry
